
Esclavo.elf:     file format elf32-littlearm

Sections:
Idx Name          Size      VMA       LMA       File off  Algn
  0 .isr_vector   00000188  08000000  08000000  00010000  2**0
                  CONTENTS, ALLOC, LOAD, READONLY, DATA
  1 .text         000056d4  08000188  08000188  00010188  2**3
                  CONTENTS, ALLOC, LOAD, READONLY, CODE
  2 .rodata       00000280  08005860  08005860  00015860  2**3
                  CONTENTS, ALLOC, LOAD, READONLY, DATA
  3 .ARM.extab    00000000  08005ae0  08005ae0  000201e0  2**0
                  CONTENTS
  4 .ARM          00000008  08005ae0  08005ae0  00015ae0  2**2
                  CONTENTS, ALLOC, LOAD, READONLY, DATA
  5 .preinit_array 00000000  08005ae8  08005ae8  000201e0  2**0
                  CONTENTS, ALLOC, LOAD, DATA
  6 .init_array   00000004  08005ae8  08005ae8  00015ae8  2**2
                  CONTENTS, ALLOC, LOAD, DATA
  7 .fini_array   00000004  08005aec  08005aec  00015aec  2**2
                  CONTENTS, ALLOC, LOAD, DATA
  8 .data         000001e0  20000000  08005af0  00020000  2**2
                  CONTENTS, ALLOC, LOAD, DATA
  9 .bss          0000ec48  200001e0  08005cd0  000201e0  2**2
                  ALLOC
 10 ._user_heap_stack 00000600  2000ee28  08005cd0  0002ee28  2**0
                  ALLOC
 11 .ARM.attributes 00000030  00000000  00000000  000201e0  2**0
                  CONTENTS, READONLY
 12 .comment      0000007b  00000000  00000000  00020210  2**0
                  CONTENTS, READONLY
 13 .debug_frame  000009e4  00000000  00000000  0002028c  2**2
                  CONTENTS, READONLY, DEBUGGING

Disassembly of section .text:

08000188 <__do_global_dtors_aux>:
 8000188:	b510      	push	{r4, lr}
 800018a:	4c05      	ldr	r4, [pc, #20]	; (80001a0 <__do_global_dtors_aux+0x18>)
 800018c:	7823      	ldrb	r3, [r4, #0]
 800018e:	b933      	cbnz	r3, 800019e <__do_global_dtors_aux+0x16>
 8000190:	4b04      	ldr	r3, [pc, #16]	; (80001a4 <__do_global_dtors_aux+0x1c>)
 8000192:	b113      	cbz	r3, 800019a <__do_global_dtors_aux+0x12>
 8000194:	4804      	ldr	r0, [pc, #16]	; (80001a8 <__do_global_dtors_aux+0x20>)
 8000196:	f3af 8000 	nop.w
 800019a:	2301      	movs	r3, #1
 800019c:	7023      	strb	r3, [r4, #0]
 800019e:	bd10      	pop	{r4, pc}
 80001a0:	200001e0 	.word	0x200001e0
 80001a4:	00000000 	.word	0x00000000
 80001a8:	08005844 	.word	0x08005844

080001ac <frame_dummy>:
 80001ac:	b508      	push	{r3, lr}
 80001ae:	4b03      	ldr	r3, [pc, #12]	; (80001bc <frame_dummy+0x10>)
 80001b0:	b11b      	cbz	r3, 80001ba <frame_dummy+0xe>
 80001b2:	4903      	ldr	r1, [pc, #12]	; (80001c0 <frame_dummy+0x14>)
 80001b4:	4803      	ldr	r0, [pc, #12]	; (80001c4 <frame_dummy+0x18>)
 80001b6:	f3af 8000 	nop.w
 80001ba:	bd08      	pop	{r3, pc}
 80001bc:	00000000 	.word	0x00000000
 80001c0:	200001e4 	.word	0x200001e4
 80001c4:	08005844 	.word	0x08005844

080001c8 <strlen>:
 80001c8:	4603      	mov	r3, r0
 80001ca:	f813 2b01 	ldrb.w	r2, [r3], #1
 80001ce:	2a00      	cmp	r2, #0
 80001d0:	d1fb      	bne.n	80001ca <strlen+0x2>
 80001d2:	1a18      	subs	r0, r3, r0
 80001d4:	3801      	subs	r0, #1
 80001d6:	4770      	bx	lr

080001d8 <__aeabi_drsub>:
 80001d8:	f081 4100 	eor.w	r1, r1, #2147483648	; 0x80000000
 80001dc:	e002      	b.n	80001e4 <__adddf3>
 80001de:	bf00      	nop

080001e0 <__aeabi_dsub>:
 80001e0:	f083 4300 	eor.w	r3, r3, #2147483648	; 0x80000000

080001e4 <__adddf3>:
 80001e4:	b530      	push	{r4, r5, lr}
 80001e6:	ea4f 0441 	mov.w	r4, r1, lsl #1
 80001ea:	ea4f 0543 	mov.w	r5, r3, lsl #1
 80001ee:	ea94 0f05 	teq	r4, r5
 80001f2:	bf08      	it	eq
 80001f4:	ea90 0f02 	teqeq	r0, r2
 80001f8:	bf1f      	itttt	ne
 80001fa:	ea54 0c00 	orrsne.w	ip, r4, r0
 80001fe:	ea55 0c02 	orrsne.w	ip, r5, r2
 8000202:	ea7f 5c64 	mvnsne.w	ip, r4, asr #21
 8000206:	ea7f 5c65 	mvnsne.w	ip, r5, asr #21
 800020a:	f000 80e2 	beq.w	80003d2 <__adddf3+0x1ee>
 800020e:	ea4f 5454 	mov.w	r4, r4, lsr #21
 8000212:	ebd4 5555 	rsbs	r5, r4, r5, lsr #21
 8000216:	bfb8      	it	lt
 8000218:	426d      	neglt	r5, r5
 800021a:	dd0c      	ble.n	8000236 <__adddf3+0x52>
 800021c:	442c      	add	r4, r5
 800021e:	ea80 0202 	eor.w	r2, r0, r2
 8000222:	ea81 0303 	eor.w	r3, r1, r3
 8000226:	ea82 0000 	eor.w	r0, r2, r0
 800022a:	ea83 0101 	eor.w	r1, r3, r1
 800022e:	ea80 0202 	eor.w	r2, r0, r2
 8000232:	ea81 0303 	eor.w	r3, r1, r3
 8000236:	2d36      	cmp	r5, #54	; 0x36
 8000238:	bf88      	it	hi
 800023a:	bd30      	pophi	{r4, r5, pc}
 800023c:	f011 4f00 	tst.w	r1, #2147483648	; 0x80000000
 8000240:	ea4f 3101 	mov.w	r1, r1, lsl #12
 8000244:	f44f 1c80 	mov.w	ip, #1048576	; 0x100000
 8000248:	ea4c 3111 	orr.w	r1, ip, r1, lsr #12
 800024c:	d002      	beq.n	8000254 <__adddf3+0x70>
 800024e:	4240      	negs	r0, r0
 8000250:	eb61 0141 	sbc.w	r1, r1, r1, lsl #1
 8000254:	f013 4f00 	tst.w	r3, #2147483648	; 0x80000000
 8000258:	ea4f 3303 	mov.w	r3, r3, lsl #12
 800025c:	ea4c 3313 	orr.w	r3, ip, r3, lsr #12
 8000260:	d002      	beq.n	8000268 <__adddf3+0x84>
 8000262:	4252      	negs	r2, r2
 8000264:	eb63 0343 	sbc.w	r3, r3, r3, lsl #1
 8000268:	ea94 0f05 	teq	r4, r5
 800026c:	f000 80a7 	beq.w	80003be <__adddf3+0x1da>
 8000270:	f1a4 0401 	sub.w	r4, r4, #1
 8000274:	f1d5 0e20 	rsbs	lr, r5, #32
 8000278:	db0d      	blt.n	8000296 <__adddf3+0xb2>
 800027a:	fa02 fc0e 	lsl.w	ip, r2, lr
 800027e:	fa22 f205 	lsr.w	r2, r2, r5
 8000282:	1880      	adds	r0, r0, r2
 8000284:	f141 0100 	adc.w	r1, r1, #0
 8000288:	fa03 f20e 	lsl.w	r2, r3, lr
 800028c:	1880      	adds	r0, r0, r2
 800028e:	fa43 f305 	asr.w	r3, r3, r5
 8000292:	4159      	adcs	r1, r3
 8000294:	e00e      	b.n	80002b4 <__adddf3+0xd0>
 8000296:	f1a5 0520 	sub.w	r5, r5, #32
 800029a:	f10e 0e20 	add.w	lr, lr, #32
 800029e:	2a01      	cmp	r2, #1
 80002a0:	fa03 fc0e 	lsl.w	ip, r3, lr
 80002a4:	bf28      	it	cs
 80002a6:	f04c 0c02 	orrcs.w	ip, ip, #2
 80002aa:	fa43 f305 	asr.w	r3, r3, r5
 80002ae:	18c0      	adds	r0, r0, r3
 80002b0:	eb51 71e3 	adcs.w	r1, r1, r3, asr #31
 80002b4:	f001 4500 	and.w	r5, r1, #2147483648	; 0x80000000
 80002b8:	d507      	bpl.n	80002ca <__adddf3+0xe6>
 80002ba:	f04f 0e00 	mov.w	lr, #0
 80002be:	f1dc 0c00 	rsbs	ip, ip, #0
 80002c2:	eb7e 0000 	sbcs.w	r0, lr, r0
 80002c6:	eb6e 0101 	sbc.w	r1, lr, r1
 80002ca:	f5b1 1f80 	cmp.w	r1, #1048576	; 0x100000
 80002ce:	d31b      	bcc.n	8000308 <__adddf3+0x124>
 80002d0:	f5b1 1f00 	cmp.w	r1, #2097152	; 0x200000
 80002d4:	d30c      	bcc.n	80002f0 <__adddf3+0x10c>
 80002d6:	0849      	lsrs	r1, r1, #1
 80002d8:	ea5f 0030 	movs.w	r0, r0, rrx
 80002dc:	ea4f 0c3c 	mov.w	ip, ip, rrx
 80002e0:	f104 0401 	add.w	r4, r4, #1
 80002e4:	ea4f 5244 	mov.w	r2, r4, lsl #21
 80002e8:	f512 0f80 	cmn.w	r2, #4194304	; 0x400000
 80002ec:	f080 809a 	bcs.w	8000424 <__adddf3+0x240>
 80002f0:	f1bc 4f00 	cmp.w	ip, #2147483648	; 0x80000000
 80002f4:	bf08      	it	eq
 80002f6:	ea5f 0c50 	movseq.w	ip, r0, lsr #1
 80002fa:	f150 0000 	adcs.w	r0, r0, #0
 80002fe:	eb41 5104 	adc.w	r1, r1, r4, lsl #20
 8000302:	ea41 0105 	orr.w	r1, r1, r5
 8000306:	bd30      	pop	{r4, r5, pc}
 8000308:	ea5f 0c4c 	movs.w	ip, ip, lsl #1
 800030c:	4140      	adcs	r0, r0
 800030e:	eb41 0101 	adc.w	r1, r1, r1
 8000312:	f411 1f80 	tst.w	r1, #1048576	; 0x100000
 8000316:	f1a4 0401 	sub.w	r4, r4, #1
 800031a:	d1e9      	bne.n	80002f0 <__adddf3+0x10c>
 800031c:	f091 0f00 	teq	r1, #0
 8000320:	bf04      	itt	eq
 8000322:	4601      	moveq	r1, r0
 8000324:	2000      	moveq	r0, #0
 8000326:	fab1 f381 	clz	r3, r1
 800032a:	bf08      	it	eq
 800032c:	3320      	addeq	r3, #32
 800032e:	f1a3 030b 	sub.w	r3, r3, #11
 8000332:	f1b3 0220 	subs.w	r2, r3, #32
 8000336:	da0c      	bge.n	8000352 <__adddf3+0x16e>
 8000338:	320c      	adds	r2, #12
 800033a:	dd08      	ble.n	800034e <__adddf3+0x16a>
 800033c:	f102 0c14 	add.w	ip, r2, #20
 8000340:	f1c2 020c 	rsb	r2, r2, #12
 8000344:	fa01 f00c 	lsl.w	r0, r1, ip
 8000348:	fa21 f102 	lsr.w	r1, r1, r2
 800034c:	e00c      	b.n	8000368 <__adddf3+0x184>
 800034e:	f102 0214 	add.w	r2, r2, #20
 8000352:	bfd8      	it	le
 8000354:	f1c2 0c20 	rsble	ip, r2, #32
 8000358:	fa01 f102 	lsl.w	r1, r1, r2
 800035c:	fa20 fc0c 	lsr.w	ip, r0, ip
 8000360:	bfdc      	itt	le
 8000362:	ea41 010c 	orrle.w	r1, r1, ip
 8000366:	4090      	lslle	r0, r2
 8000368:	1ae4      	subs	r4, r4, r3
 800036a:	bfa2      	ittt	ge
 800036c:	eb01 5104 	addge.w	r1, r1, r4, lsl #20
 8000370:	4329      	orrge	r1, r5
 8000372:	bd30      	popge	{r4, r5, pc}
 8000374:	ea6f 0404 	mvn.w	r4, r4
 8000378:	3c1f      	subs	r4, #31
 800037a:	da1c      	bge.n	80003b6 <__adddf3+0x1d2>
 800037c:	340c      	adds	r4, #12
 800037e:	dc0e      	bgt.n	800039e <__adddf3+0x1ba>
 8000380:	f104 0414 	add.w	r4, r4, #20
 8000384:	f1c4 0220 	rsb	r2, r4, #32
 8000388:	fa20 f004 	lsr.w	r0, r0, r4
 800038c:	fa01 f302 	lsl.w	r3, r1, r2
 8000390:	ea40 0003 	orr.w	r0, r0, r3
 8000394:	fa21 f304 	lsr.w	r3, r1, r4
 8000398:	ea45 0103 	orr.w	r1, r5, r3
 800039c:	bd30      	pop	{r4, r5, pc}
 800039e:	f1c4 040c 	rsb	r4, r4, #12
 80003a2:	f1c4 0220 	rsb	r2, r4, #32
 80003a6:	fa20 f002 	lsr.w	r0, r0, r2
 80003aa:	fa01 f304 	lsl.w	r3, r1, r4
 80003ae:	ea40 0003 	orr.w	r0, r0, r3
 80003b2:	4629      	mov	r1, r5
 80003b4:	bd30      	pop	{r4, r5, pc}
 80003b6:	fa21 f004 	lsr.w	r0, r1, r4
 80003ba:	4629      	mov	r1, r5
 80003bc:	bd30      	pop	{r4, r5, pc}
 80003be:	f094 0f00 	teq	r4, #0
 80003c2:	f483 1380 	eor.w	r3, r3, #1048576	; 0x100000
 80003c6:	bf06      	itte	eq
 80003c8:	f481 1180 	eoreq.w	r1, r1, #1048576	; 0x100000
 80003cc:	3401      	addeq	r4, #1
 80003ce:	3d01      	subne	r5, #1
 80003d0:	e74e      	b.n	8000270 <__adddf3+0x8c>
 80003d2:	ea7f 5c64 	mvns.w	ip, r4, asr #21
 80003d6:	bf18      	it	ne
 80003d8:	ea7f 5c65 	mvnsne.w	ip, r5, asr #21
 80003dc:	d029      	beq.n	8000432 <__adddf3+0x24e>
 80003de:	ea94 0f05 	teq	r4, r5
 80003e2:	bf08      	it	eq
 80003e4:	ea90 0f02 	teqeq	r0, r2
 80003e8:	d005      	beq.n	80003f6 <__adddf3+0x212>
 80003ea:	ea54 0c00 	orrs.w	ip, r4, r0
 80003ee:	bf04      	itt	eq
 80003f0:	4619      	moveq	r1, r3
 80003f2:	4610      	moveq	r0, r2
 80003f4:	bd30      	pop	{r4, r5, pc}
 80003f6:	ea91 0f03 	teq	r1, r3
 80003fa:	bf1e      	ittt	ne
 80003fc:	2100      	movne	r1, #0
 80003fe:	2000      	movne	r0, #0
 8000400:	bd30      	popne	{r4, r5, pc}
 8000402:	ea5f 5c54 	movs.w	ip, r4, lsr #21
 8000406:	d105      	bne.n	8000414 <__adddf3+0x230>
 8000408:	0040      	lsls	r0, r0, #1
 800040a:	4149      	adcs	r1, r1
 800040c:	bf28      	it	cs
 800040e:	f041 4100 	orrcs.w	r1, r1, #2147483648	; 0x80000000
 8000412:	bd30      	pop	{r4, r5, pc}
 8000414:	f514 0480 	adds.w	r4, r4, #4194304	; 0x400000
 8000418:	bf3c      	itt	cc
 800041a:	f501 1180 	addcc.w	r1, r1, #1048576	; 0x100000
 800041e:	bd30      	popcc	{r4, r5, pc}
 8000420:	f001 4500 	and.w	r5, r1, #2147483648	; 0x80000000
 8000424:	f045 41fe 	orr.w	r1, r5, #2130706432	; 0x7f000000
 8000428:	f441 0170 	orr.w	r1, r1, #15728640	; 0xf00000
 800042c:	f04f 0000 	mov.w	r0, #0
 8000430:	bd30      	pop	{r4, r5, pc}
 8000432:	ea7f 5c64 	mvns.w	ip, r4, asr #21
 8000436:	bf1a      	itte	ne
 8000438:	4619      	movne	r1, r3
 800043a:	4610      	movne	r0, r2
 800043c:	ea7f 5c65 	mvnseq.w	ip, r5, asr #21
 8000440:	bf1c      	itt	ne
 8000442:	460b      	movne	r3, r1
 8000444:	4602      	movne	r2, r0
 8000446:	ea50 3401 	orrs.w	r4, r0, r1, lsl #12
 800044a:	bf06      	itte	eq
 800044c:	ea52 3503 	orrseq.w	r5, r2, r3, lsl #12
 8000450:	ea91 0f03 	teqeq	r1, r3
 8000454:	f441 2100 	orrne.w	r1, r1, #524288	; 0x80000
 8000458:	bd30      	pop	{r4, r5, pc}
 800045a:	bf00      	nop

0800045c <__aeabi_ui2d>:
 800045c:	f090 0f00 	teq	r0, #0
 8000460:	bf04      	itt	eq
 8000462:	2100      	moveq	r1, #0
 8000464:	4770      	bxeq	lr
 8000466:	b530      	push	{r4, r5, lr}
 8000468:	f44f 6480 	mov.w	r4, #1024	; 0x400
 800046c:	f104 0432 	add.w	r4, r4, #50	; 0x32
 8000470:	f04f 0500 	mov.w	r5, #0
 8000474:	f04f 0100 	mov.w	r1, #0
 8000478:	e750      	b.n	800031c <__adddf3+0x138>
 800047a:	bf00      	nop

0800047c <__aeabi_i2d>:
 800047c:	f090 0f00 	teq	r0, #0
 8000480:	bf04      	itt	eq
 8000482:	2100      	moveq	r1, #0
 8000484:	4770      	bxeq	lr
 8000486:	b530      	push	{r4, r5, lr}
 8000488:	f44f 6480 	mov.w	r4, #1024	; 0x400
 800048c:	f104 0432 	add.w	r4, r4, #50	; 0x32
 8000490:	f010 4500 	ands.w	r5, r0, #2147483648	; 0x80000000
 8000494:	bf48      	it	mi
 8000496:	4240      	negmi	r0, r0
 8000498:	f04f 0100 	mov.w	r1, #0
 800049c:	e73e      	b.n	800031c <__adddf3+0x138>
 800049e:	bf00      	nop

080004a0 <__aeabi_f2d>:
 80004a0:	0042      	lsls	r2, r0, #1
 80004a2:	ea4f 01e2 	mov.w	r1, r2, asr #3
 80004a6:	ea4f 0131 	mov.w	r1, r1, rrx
 80004aa:	ea4f 7002 	mov.w	r0, r2, lsl #28
 80004ae:	bf1f      	itttt	ne
 80004b0:	f012 437f 	andsne.w	r3, r2, #4278190080	; 0xff000000
 80004b4:	f093 4f7f 	teqne	r3, #4278190080	; 0xff000000
 80004b8:	f081 5160 	eorne.w	r1, r1, #939524096	; 0x38000000
 80004bc:	4770      	bxne	lr
 80004be:	f032 427f 	bics.w	r2, r2, #4278190080	; 0xff000000
 80004c2:	bf08      	it	eq
 80004c4:	4770      	bxeq	lr
 80004c6:	f093 4f7f 	teq	r3, #4278190080	; 0xff000000
 80004ca:	bf04      	itt	eq
 80004cc:	f441 2100 	orreq.w	r1, r1, #524288	; 0x80000
 80004d0:	4770      	bxeq	lr
 80004d2:	b530      	push	{r4, r5, lr}
 80004d4:	f44f 7460 	mov.w	r4, #896	; 0x380
 80004d8:	f001 4500 	and.w	r5, r1, #2147483648	; 0x80000000
 80004dc:	f021 4100 	bic.w	r1, r1, #2147483648	; 0x80000000
 80004e0:	e71c      	b.n	800031c <__adddf3+0x138>
 80004e2:	bf00      	nop

080004e4 <__aeabi_ul2d>:
 80004e4:	ea50 0201 	orrs.w	r2, r0, r1
 80004e8:	bf08      	it	eq
 80004ea:	4770      	bxeq	lr
 80004ec:	b530      	push	{r4, r5, lr}
 80004ee:	f04f 0500 	mov.w	r5, #0
 80004f2:	e00a      	b.n	800050a <__aeabi_l2d+0x16>

080004f4 <__aeabi_l2d>:
 80004f4:	ea50 0201 	orrs.w	r2, r0, r1
 80004f8:	bf08      	it	eq
 80004fa:	4770      	bxeq	lr
 80004fc:	b530      	push	{r4, r5, lr}
 80004fe:	f011 4500 	ands.w	r5, r1, #2147483648	; 0x80000000
 8000502:	d502      	bpl.n	800050a <__aeabi_l2d+0x16>
 8000504:	4240      	negs	r0, r0
 8000506:	eb61 0141 	sbc.w	r1, r1, r1, lsl #1
 800050a:	f44f 6480 	mov.w	r4, #1024	; 0x400
 800050e:	f104 0432 	add.w	r4, r4, #50	; 0x32
 8000512:	ea5f 5c91 	movs.w	ip, r1, lsr #22
 8000516:	f43f aed8 	beq.w	80002ca <__adddf3+0xe6>
 800051a:	f04f 0203 	mov.w	r2, #3
 800051e:	ea5f 0cdc 	movs.w	ip, ip, lsr #3
 8000522:	bf18      	it	ne
 8000524:	3203      	addne	r2, #3
 8000526:	ea5f 0cdc 	movs.w	ip, ip, lsr #3
 800052a:	bf18      	it	ne
 800052c:	3203      	addne	r2, #3
 800052e:	eb02 02dc 	add.w	r2, r2, ip, lsr #3
 8000532:	f1c2 0320 	rsb	r3, r2, #32
 8000536:	fa00 fc03 	lsl.w	ip, r0, r3
 800053a:	fa20 f002 	lsr.w	r0, r0, r2
 800053e:	fa01 fe03 	lsl.w	lr, r1, r3
 8000542:	ea40 000e 	orr.w	r0, r0, lr
 8000546:	fa21 f102 	lsr.w	r1, r1, r2
 800054a:	4414      	add	r4, r2
 800054c:	e6bd      	b.n	80002ca <__adddf3+0xe6>
 800054e:	bf00      	nop

08000550 <__aeabi_dmul>:
 8000550:	b570      	push	{r4, r5, r6, lr}
 8000552:	f04f 0cff 	mov.w	ip, #255	; 0xff
 8000556:	f44c 6ce0 	orr.w	ip, ip, #1792	; 0x700
 800055a:	ea1c 5411 	ands.w	r4, ip, r1, lsr #20
 800055e:	bf1d      	ittte	ne
 8000560:	ea1c 5513 	andsne.w	r5, ip, r3, lsr #20
 8000564:	ea94 0f0c 	teqne	r4, ip
 8000568:	ea95 0f0c 	teqne	r5, ip
 800056c:	f000 f8de 	bleq	800072c <__aeabi_dmul+0x1dc>
 8000570:	442c      	add	r4, r5
 8000572:	ea81 0603 	eor.w	r6, r1, r3
 8000576:	ea21 514c 	bic.w	r1, r1, ip, lsl #21
 800057a:	ea23 534c 	bic.w	r3, r3, ip, lsl #21
 800057e:	ea50 3501 	orrs.w	r5, r0, r1, lsl #12
 8000582:	bf18      	it	ne
 8000584:	ea52 3503 	orrsne.w	r5, r2, r3, lsl #12
 8000588:	f441 1180 	orr.w	r1, r1, #1048576	; 0x100000
 800058c:	f443 1380 	orr.w	r3, r3, #1048576	; 0x100000
 8000590:	d038      	beq.n	8000604 <__aeabi_dmul+0xb4>
 8000592:	fba0 ce02 	umull	ip, lr, r0, r2
 8000596:	f04f 0500 	mov.w	r5, #0
 800059a:	fbe1 e502 	umlal	lr, r5, r1, r2
 800059e:	f006 4200 	and.w	r2, r6, #2147483648	; 0x80000000
 80005a2:	fbe0 e503 	umlal	lr, r5, r0, r3
 80005a6:	f04f 0600 	mov.w	r6, #0
 80005aa:	fbe1 5603 	umlal	r5, r6, r1, r3
 80005ae:	f09c 0f00 	teq	ip, #0
 80005b2:	bf18      	it	ne
 80005b4:	f04e 0e01 	orrne.w	lr, lr, #1
 80005b8:	f1a4 04ff 	sub.w	r4, r4, #255	; 0xff
 80005bc:	f5b6 7f00 	cmp.w	r6, #512	; 0x200
 80005c0:	f564 7440 	sbc.w	r4, r4, #768	; 0x300
 80005c4:	d204      	bcs.n	80005d0 <__aeabi_dmul+0x80>
 80005c6:	ea5f 0e4e 	movs.w	lr, lr, lsl #1
 80005ca:	416d      	adcs	r5, r5
 80005cc:	eb46 0606 	adc.w	r6, r6, r6
 80005d0:	ea42 21c6 	orr.w	r1, r2, r6, lsl #11
 80005d4:	ea41 5155 	orr.w	r1, r1, r5, lsr #21
 80005d8:	ea4f 20c5 	mov.w	r0, r5, lsl #11
 80005dc:	ea40 505e 	orr.w	r0, r0, lr, lsr #21
 80005e0:	ea4f 2ece 	mov.w	lr, lr, lsl #11
 80005e4:	f1b4 0cfd 	subs.w	ip, r4, #253	; 0xfd
 80005e8:	bf88      	it	hi
 80005ea:	f5bc 6fe0 	cmphi.w	ip, #1792	; 0x700
 80005ee:	d81e      	bhi.n	800062e <__aeabi_dmul+0xde>
 80005f0:	f1be 4f00 	cmp.w	lr, #2147483648	; 0x80000000
 80005f4:	bf08      	it	eq
 80005f6:	ea5f 0e50 	movseq.w	lr, r0, lsr #1
 80005fa:	f150 0000 	adcs.w	r0, r0, #0
 80005fe:	eb41 5104 	adc.w	r1, r1, r4, lsl #20
 8000602:	bd70      	pop	{r4, r5, r6, pc}
 8000604:	f006 4600 	and.w	r6, r6, #2147483648	; 0x80000000
 8000608:	ea46 0101 	orr.w	r1, r6, r1
 800060c:	ea40 0002 	orr.w	r0, r0, r2
 8000610:	ea81 0103 	eor.w	r1, r1, r3
 8000614:	ebb4 045c 	subs.w	r4, r4, ip, lsr #1
 8000618:	bfc2      	ittt	gt
 800061a:	ebd4 050c 	rsbsgt	r5, r4, ip
 800061e:	ea41 5104 	orrgt.w	r1, r1, r4, lsl #20
 8000622:	bd70      	popgt	{r4, r5, r6, pc}
 8000624:	f441 1180 	orr.w	r1, r1, #1048576	; 0x100000
 8000628:	f04f 0e00 	mov.w	lr, #0
 800062c:	3c01      	subs	r4, #1
 800062e:	f300 80ab 	bgt.w	8000788 <__aeabi_dmul+0x238>
 8000632:	f114 0f36 	cmn.w	r4, #54	; 0x36
 8000636:	bfde      	ittt	le
 8000638:	2000      	movle	r0, #0
 800063a:	f001 4100 	andle.w	r1, r1, #2147483648	; 0x80000000
 800063e:	bd70      	pople	{r4, r5, r6, pc}
 8000640:	f1c4 0400 	rsb	r4, r4, #0
 8000644:	3c20      	subs	r4, #32
 8000646:	da35      	bge.n	80006b4 <__aeabi_dmul+0x164>
 8000648:	340c      	adds	r4, #12
 800064a:	dc1b      	bgt.n	8000684 <__aeabi_dmul+0x134>
 800064c:	f104 0414 	add.w	r4, r4, #20
 8000650:	f1c4 0520 	rsb	r5, r4, #32
 8000654:	fa00 f305 	lsl.w	r3, r0, r5
 8000658:	fa20 f004 	lsr.w	r0, r0, r4
 800065c:	fa01 f205 	lsl.w	r2, r1, r5
 8000660:	ea40 0002 	orr.w	r0, r0, r2
 8000664:	f001 4200 	and.w	r2, r1, #2147483648	; 0x80000000
 8000668:	f021 4100 	bic.w	r1, r1, #2147483648	; 0x80000000
 800066c:	eb10 70d3 	adds.w	r0, r0, r3, lsr #31
 8000670:	fa21 f604 	lsr.w	r6, r1, r4
 8000674:	eb42 0106 	adc.w	r1, r2, r6
 8000678:	ea5e 0e43 	orrs.w	lr, lr, r3, lsl #1
 800067c:	bf08      	it	eq
 800067e:	ea20 70d3 	biceq.w	r0, r0, r3, lsr #31
 8000682:	bd70      	pop	{r4, r5, r6, pc}
 8000684:	f1c4 040c 	rsb	r4, r4, #12
 8000688:	f1c4 0520 	rsb	r5, r4, #32
 800068c:	fa00 f304 	lsl.w	r3, r0, r4
 8000690:	fa20 f005 	lsr.w	r0, r0, r5
 8000694:	fa01 f204 	lsl.w	r2, r1, r4
 8000698:	ea40 0002 	orr.w	r0, r0, r2
 800069c:	f001 4100 	and.w	r1, r1, #2147483648	; 0x80000000
 80006a0:	eb10 70d3 	adds.w	r0, r0, r3, lsr #31
 80006a4:	f141 0100 	adc.w	r1, r1, #0
 80006a8:	ea5e 0e43 	orrs.w	lr, lr, r3, lsl #1
 80006ac:	bf08      	it	eq
 80006ae:	ea20 70d3 	biceq.w	r0, r0, r3, lsr #31
 80006b2:	bd70      	pop	{r4, r5, r6, pc}
 80006b4:	f1c4 0520 	rsb	r5, r4, #32
 80006b8:	fa00 f205 	lsl.w	r2, r0, r5
 80006bc:	ea4e 0e02 	orr.w	lr, lr, r2
 80006c0:	fa20 f304 	lsr.w	r3, r0, r4
 80006c4:	fa01 f205 	lsl.w	r2, r1, r5
 80006c8:	ea43 0302 	orr.w	r3, r3, r2
 80006cc:	fa21 f004 	lsr.w	r0, r1, r4
 80006d0:	f001 4100 	and.w	r1, r1, #2147483648	; 0x80000000
 80006d4:	fa21 f204 	lsr.w	r2, r1, r4
 80006d8:	ea20 0002 	bic.w	r0, r0, r2
 80006dc:	eb00 70d3 	add.w	r0, r0, r3, lsr #31
 80006e0:	ea5e 0e43 	orrs.w	lr, lr, r3, lsl #1
 80006e4:	bf08      	it	eq
 80006e6:	ea20 70d3 	biceq.w	r0, r0, r3, lsr #31
 80006ea:	bd70      	pop	{r4, r5, r6, pc}
 80006ec:	f094 0f00 	teq	r4, #0
 80006f0:	d10f      	bne.n	8000712 <__aeabi_dmul+0x1c2>
 80006f2:	f001 4600 	and.w	r6, r1, #2147483648	; 0x80000000
 80006f6:	0040      	lsls	r0, r0, #1
 80006f8:	eb41 0101 	adc.w	r1, r1, r1
 80006fc:	f411 1f80 	tst.w	r1, #1048576	; 0x100000
 8000700:	bf08      	it	eq
 8000702:	3c01      	subeq	r4, #1
 8000704:	d0f7      	beq.n	80006f6 <__aeabi_dmul+0x1a6>
 8000706:	ea41 0106 	orr.w	r1, r1, r6
 800070a:	f095 0f00 	teq	r5, #0
 800070e:	bf18      	it	ne
 8000710:	4770      	bxne	lr
 8000712:	f003 4600 	and.w	r6, r3, #2147483648	; 0x80000000
 8000716:	0052      	lsls	r2, r2, #1
 8000718:	eb43 0303 	adc.w	r3, r3, r3
 800071c:	f413 1f80 	tst.w	r3, #1048576	; 0x100000
 8000720:	bf08      	it	eq
 8000722:	3d01      	subeq	r5, #1
 8000724:	d0f7      	beq.n	8000716 <__aeabi_dmul+0x1c6>
 8000726:	ea43 0306 	orr.w	r3, r3, r6
 800072a:	4770      	bx	lr
 800072c:	ea94 0f0c 	teq	r4, ip
 8000730:	ea0c 5513 	and.w	r5, ip, r3, lsr #20
 8000734:	bf18      	it	ne
 8000736:	ea95 0f0c 	teqne	r5, ip
 800073a:	d00c      	beq.n	8000756 <__aeabi_dmul+0x206>
 800073c:	ea50 0641 	orrs.w	r6, r0, r1, lsl #1
 8000740:	bf18      	it	ne
 8000742:	ea52 0643 	orrsne.w	r6, r2, r3, lsl #1
 8000746:	d1d1      	bne.n	80006ec <__aeabi_dmul+0x19c>
 8000748:	ea81 0103 	eor.w	r1, r1, r3
 800074c:	f001 4100 	and.w	r1, r1, #2147483648	; 0x80000000
 8000750:	f04f 0000 	mov.w	r0, #0
 8000754:	bd70      	pop	{r4, r5, r6, pc}
 8000756:	ea50 0641 	orrs.w	r6, r0, r1, lsl #1
 800075a:	bf06      	itte	eq
 800075c:	4610      	moveq	r0, r2
 800075e:	4619      	moveq	r1, r3
 8000760:	ea52 0643 	orrsne.w	r6, r2, r3, lsl #1
 8000764:	d019      	beq.n	800079a <__aeabi_dmul+0x24a>
 8000766:	ea94 0f0c 	teq	r4, ip
 800076a:	d102      	bne.n	8000772 <__aeabi_dmul+0x222>
 800076c:	ea50 3601 	orrs.w	r6, r0, r1, lsl #12
 8000770:	d113      	bne.n	800079a <__aeabi_dmul+0x24a>
 8000772:	ea95 0f0c 	teq	r5, ip
 8000776:	d105      	bne.n	8000784 <__aeabi_dmul+0x234>
 8000778:	ea52 3603 	orrs.w	r6, r2, r3, lsl #12
 800077c:	bf1c      	itt	ne
 800077e:	4610      	movne	r0, r2
 8000780:	4619      	movne	r1, r3
 8000782:	d10a      	bne.n	800079a <__aeabi_dmul+0x24a>
 8000784:	ea81 0103 	eor.w	r1, r1, r3
 8000788:	f001 4100 	and.w	r1, r1, #2147483648	; 0x80000000
 800078c:	f041 41fe 	orr.w	r1, r1, #2130706432	; 0x7f000000
 8000790:	f441 0170 	orr.w	r1, r1, #15728640	; 0xf00000
 8000794:	f04f 0000 	mov.w	r0, #0
 8000798:	bd70      	pop	{r4, r5, r6, pc}
 800079a:	f041 41fe 	orr.w	r1, r1, #2130706432	; 0x7f000000
 800079e:	f441 0178 	orr.w	r1, r1, #16252928	; 0xf80000
 80007a2:	bd70      	pop	{r4, r5, r6, pc}

080007a4 <__aeabi_ddiv>:
 80007a4:	b570      	push	{r4, r5, r6, lr}
 80007a6:	f04f 0cff 	mov.w	ip, #255	; 0xff
 80007aa:	f44c 6ce0 	orr.w	ip, ip, #1792	; 0x700
 80007ae:	ea1c 5411 	ands.w	r4, ip, r1, lsr #20
 80007b2:	bf1d      	ittte	ne
 80007b4:	ea1c 5513 	andsne.w	r5, ip, r3, lsr #20
 80007b8:	ea94 0f0c 	teqne	r4, ip
 80007bc:	ea95 0f0c 	teqne	r5, ip
 80007c0:	f000 f8a7 	bleq	8000912 <__aeabi_ddiv+0x16e>
 80007c4:	eba4 0405 	sub.w	r4, r4, r5
 80007c8:	ea81 0e03 	eor.w	lr, r1, r3
 80007cc:	ea52 3503 	orrs.w	r5, r2, r3, lsl #12
 80007d0:	ea4f 3101 	mov.w	r1, r1, lsl #12
 80007d4:	f000 8088 	beq.w	80008e8 <__aeabi_ddiv+0x144>
 80007d8:	ea4f 3303 	mov.w	r3, r3, lsl #12
 80007dc:	f04f 5580 	mov.w	r5, #268435456	; 0x10000000
 80007e0:	ea45 1313 	orr.w	r3, r5, r3, lsr #4
 80007e4:	ea43 6312 	orr.w	r3, r3, r2, lsr #24
 80007e8:	ea4f 2202 	mov.w	r2, r2, lsl #8
 80007ec:	ea45 1511 	orr.w	r5, r5, r1, lsr #4
 80007f0:	ea45 6510 	orr.w	r5, r5, r0, lsr #24
 80007f4:	ea4f 2600 	mov.w	r6, r0, lsl #8
 80007f8:	f00e 4100 	and.w	r1, lr, #2147483648	; 0x80000000
 80007fc:	429d      	cmp	r5, r3
 80007fe:	bf08      	it	eq
 8000800:	4296      	cmpeq	r6, r2
 8000802:	f144 04fd 	adc.w	r4, r4, #253	; 0xfd
 8000806:	f504 7440 	add.w	r4, r4, #768	; 0x300
 800080a:	d202      	bcs.n	8000812 <__aeabi_ddiv+0x6e>
 800080c:	085b      	lsrs	r3, r3, #1
 800080e:	ea4f 0232 	mov.w	r2, r2, rrx
 8000812:	1ab6      	subs	r6, r6, r2
 8000814:	eb65 0503 	sbc.w	r5, r5, r3
 8000818:	085b      	lsrs	r3, r3, #1
 800081a:	ea4f 0232 	mov.w	r2, r2, rrx
 800081e:	f44f 1080 	mov.w	r0, #1048576	; 0x100000
 8000822:	f44f 2c00 	mov.w	ip, #524288	; 0x80000
 8000826:	ebb6 0e02 	subs.w	lr, r6, r2
 800082a:	eb75 0e03 	sbcs.w	lr, r5, r3
 800082e:	bf22      	ittt	cs
 8000830:	1ab6      	subcs	r6, r6, r2
 8000832:	4675      	movcs	r5, lr
 8000834:	ea40 000c 	orrcs.w	r0, r0, ip
 8000838:	085b      	lsrs	r3, r3, #1
 800083a:	ea4f 0232 	mov.w	r2, r2, rrx
 800083e:	ebb6 0e02 	subs.w	lr, r6, r2
 8000842:	eb75 0e03 	sbcs.w	lr, r5, r3
 8000846:	bf22      	ittt	cs
 8000848:	1ab6      	subcs	r6, r6, r2
 800084a:	4675      	movcs	r5, lr
 800084c:	ea40 005c 	orrcs.w	r0, r0, ip, lsr #1
 8000850:	085b      	lsrs	r3, r3, #1
 8000852:	ea4f 0232 	mov.w	r2, r2, rrx
 8000856:	ebb6 0e02 	subs.w	lr, r6, r2
 800085a:	eb75 0e03 	sbcs.w	lr, r5, r3
 800085e:	bf22      	ittt	cs
 8000860:	1ab6      	subcs	r6, r6, r2
 8000862:	4675      	movcs	r5, lr
 8000864:	ea40 009c 	orrcs.w	r0, r0, ip, lsr #2
 8000868:	085b      	lsrs	r3, r3, #1
 800086a:	ea4f 0232 	mov.w	r2, r2, rrx
 800086e:	ebb6 0e02 	subs.w	lr, r6, r2
 8000872:	eb75 0e03 	sbcs.w	lr, r5, r3
 8000876:	bf22      	ittt	cs
 8000878:	1ab6      	subcs	r6, r6, r2
 800087a:	4675      	movcs	r5, lr
 800087c:	ea40 00dc 	orrcs.w	r0, r0, ip, lsr #3
 8000880:	ea55 0e06 	orrs.w	lr, r5, r6
 8000884:	d018      	beq.n	80008b8 <__aeabi_ddiv+0x114>
 8000886:	ea4f 1505 	mov.w	r5, r5, lsl #4
 800088a:	ea45 7516 	orr.w	r5, r5, r6, lsr #28
 800088e:	ea4f 1606 	mov.w	r6, r6, lsl #4
 8000892:	ea4f 03c3 	mov.w	r3, r3, lsl #3
 8000896:	ea43 7352 	orr.w	r3, r3, r2, lsr #29
 800089a:	ea4f 02c2 	mov.w	r2, r2, lsl #3
 800089e:	ea5f 1c1c 	movs.w	ip, ip, lsr #4
 80008a2:	d1c0      	bne.n	8000826 <__aeabi_ddiv+0x82>
 80008a4:	f411 1f80 	tst.w	r1, #1048576	; 0x100000
 80008a8:	d10b      	bne.n	80008c2 <__aeabi_ddiv+0x11e>
 80008aa:	ea41 0100 	orr.w	r1, r1, r0
 80008ae:	f04f 0000 	mov.w	r0, #0
 80008b2:	f04f 4c00 	mov.w	ip, #2147483648	; 0x80000000
 80008b6:	e7b6      	b.n	8000826 <__aeabi_ddiv+0x82>
 80008b8:	f411 1f80 	tst.w	r1, #1048576	; 0x100000
 80008bc:	bf04      	itt	eq
 80008be:	4301      	orreq	r1, r0
 80008c0:	2000      	moveq	r0, #0
 80008c2:	f1b4 0cfd 	subs.w	ip, r4, #253	; 0xfd
 80008c6:	bf88      	it	hi
 80008c8:	f5bc 6fe0 	cmphi.w	ip, #1792	; 0x700
 80008cc:	f63f aeaf 	bhi.w	800062e <__aeabi_dmul+0xde>
 80008d0:	ebb5 0c03 	subs.w	ip, r5, r3
 80008d4:	bf04      	itt	eq
 80008d6:	ebb6 0c02 	subseq.w	ip, r6, r2
 80008da:	ea5f 0c50 	movseq.w	ip, r0, lsr #1
 80008de:	f150 0000 	adcs.w	r0, r0, #0
 80008e2:	eb41 5104 	adc.w	r1, r1, r4, lsl #20
 80008e6:	bd70      	pop	{r4, r5, r6, pc}
 80008e8:	f00e 4e00 	and.w	lr, lr, #2147483648	; 0x80000000
 80008ec:	ea4e 3111 	orr.w	r1, lr, r1, lsr #12
 80008f0:	eb14 045c 	adds.w	r4, r4, ip, lsr #1
 80008f4:	bfc2      	ittt	gt
 80008f6:	ebd4 050c 	rsbsgt	r5, r4, ip
 80008fa:	ea41 5104 	orrgt.w	r1, r1, r4, lsl #20
 80008fe:	bd70      	popgt	{r4, r5, r6, pc}
 8000900:	f441 1180 	orr.w	r1, r1, #1048576	; 0x100000
 8000904:	f04f 0e00 	mov.w	lr, #0
 8000908:	3c01      	subs	r4, #1
 800090a:	e690      	b.n	800062e <__aeabi_dmul+0xde>
 800090c:	ea45 0e06 	orr.w	lr, r5, r6
 8000910:	e68d      	b.n	800062e <__aeabi_dmul+0xde>
 8000912:	ea0c 5513 	and.w	r5, ip, r3, lsr #20
 8000916:	ea94 0f0c 	teq	r4, ip
 800091a:	bf08      	it	eq
 800091c:	ea95 0f0c 	teqeq	r5, ip
 8000920:	f43f af3b 	beq.w	800079a <__aeabi_dmul+0x24a>
 8000924:	ea94 0f0c 	teq	r4, ip
 8000928:	d10a      	bne.n	8000940 <__aeabi_ddiv+0x19c>
 800092a:	ea50 3401 	orrs.w	r4, r0, r1, lsl #12
 800092e:	f47f af34 	bne.w	800079a <__aeabi_dmul+0x24a>
 8000932:	ea95 0f0c 	teq	r5, ip
 8000936:	f47f af25 	bne.w	8000784 <__aeabi_dmul+0x234>
 800093a:	4610      	mov	r0, r2
 800093c:	4619      	mov	r1, r3
 800093e:	e72c      	b.n	800079a <__aeabi_dmul+0x24a>
 8000940:	ea95 0f0c 	teq	r5, ip
 8000944:	d106      	bne.n	8000954 <__aeabi_ddiv+0x1b0>
 8000946:	ea52 3503 	orrs.w	r5, r2, r3, lsl #12
 800094a:	f43f aefd 	beq.w	8000748 <__aeabi_dmul+0x1f8>
 800094e:	4610      	mov	r0, r2
 8000950:	4619      	mov	r1, r3
 8000952:	e722      	b.n	800079a <__aeabi_dmul+0x24a>
 8000954:	ea50 0641 	orrs.w	r6, r0, r1, lsl #1
 8000958:	bf18      	it	ne
 800095a:	ea52 0643 	orrsne.w	r6, r2, r3, lsl #1
 800095e:	f47f aec5 	bne.w	80006ec <__aeabi_dmul+0x19c>
 8000962:	ea50 0441 	orrs.w	r4, r0, r1, lsl #1
 8000966:	f47f af0d 	bne.w	8000784 <__aeabi_dmul+0x234>
 800096a:	ea52 0543 	orrs.w	r5, r2, r3, lsl #1
 800096e:	f47f aeeb 	bne.w	8000748 <__aeabi_dmul+0x1f8>
 8000972:	e712      	b.n	800079a <__aeabi_dmul+0x24a>

08000974 <__gedf2>:
 8000974:	f04f 3cff 	mov.w	ip, #4294967295
 8000978:	e006      	b.n	8000988 <__cmpdf2+0x4>
 800097a:	bf00      	nop

0800097c <__ledf2>:
 800097c:	f04f 0c01 	mov.w	ip, #1
 8000980:	e002      	b.n	8000988 <__cmpdf2+0x4>
 8000982:	bf00      	nop

08000984 <__cmpdf2>:
 8000984:	f04f 0c01 	mov.w	ip, #1
 8000988:	f84d cd04 	str.w	ip, [sp, #-4]!
 800098c:	ea4f 0c41 	mov.w	ip, r1, lsl #1
 8000990:	ea7f 5c6c 	mvns.w	ip, ip, asr #21
 8000994:	ea4f 0c43 	mov.w	ip, r3, lsl #1
 8000998:	bf18      	it	ne
 800099a:	ea7f 5c6c 	mvnsne.w	ip, ip, asr #21
 800099e:	d01b      	beq.n	80009d8 <__cmpdf2+0x54>
 80009a0:	b001      	add	sp, #4
 80009a2:	ea50 0c41 	orrs.w	ip, r0, r1, lsl #1
 80009a6:	bf0c      	ite	eq
 80009a8:	ea52 0c43 	orrseq.w	ip, r2, r3, lsl #1
 80009ac:	ea91 0f03 	teqne	r1, r3
 80009b0:	bf02      	ittt	eq
 80009b2:	ea90 0f02 	teqeq	r0, r2
 80009b6:	2000      	moveq	r0, #0
 80009b8:	4770      	bxeq	lr
 80009ba:	f110 0f00 	cmn.w	r0, #0
 80009be:	ea91 0f03 	teq	r1, r3
 80009c2:	bf58      	it	pl
 80009c4:	4299      	cmppl	r1, r3
 80009c6:	bf08      	it	eq
 80009c8:	4290      	cmpeq	r0, r2
 80009ca:	bf2c      	ite	cs
 80009cc:	17d8      	asrcs	r0, r3, #31
 80009ce:	ea6f 70e3 	mvncc.w	r0, r3, asr #31
 80009d2:	f040 0001 	orr.w	r0, r0, #1
 80009d6:	4770      	bx	lr
 80009d8:	ea4f 0c41 	mov.w	ip, r1, lsl #1
 80009dc:	ea7f 5c6c 	mvns.w	ip, ip, asr #21
 80009e0:	d102      	bne.n	80009e8 <__cmpdf2+0x64>
 80009e2:	ea50 3c01 	orrs.w	ip, r0, r1, lsl #12
 80009e6:	d107      	bne.n	80009f8 <__cmpdf2+0x74>
 80009e8:	ea4f 0c43 	mov.w	ip, r3, lsl #1
 80009ec:	ea7f 5c6c 	mvns.w	ip, ip, asr #21
 80009f0:	d1d6      	bne.n	80009a0 <__cmpdf2+0x1c>
 80009f2:	ea52 3c03 	orrs.w	ip, r2, r3, lsl #12
 80009f6:	d0d3      	beq.n	80009a0 <__cmpdf2+0x1c>
 80009f8:	f85d 0b04 	ldr.w	r0, [sp], #4
 80009fc:	4770      	bx	lr
 80009fe:	bf00      	nop

08000a00 <__aeabi_cdrcmple>:
 8000a00:	4684      	mov	ip, r0
 8000a02:	4610      	mov	r0, r2
 8000a04:	4662      	mov	r2, ip
 8000a06:	468c      	mov	ip, r1
 8000a08:	4619      	mov	r1, r3
 8000a0a:	4663      	mov	r3, ip
 8000a0c:	e000      	b.n	8000a10 <__aeabi_cdcmpeq>
 8000a0e:	bf00      	nop

08000a10 <__aeabi_cdcmpeq>:
 8000a10:	b501      	push	{r0, lr}
 8000a12:	f7ff ffb7 	bl	8000984 <__cmpdf2>
 8000a16:	2800      	cmp	r0, #0
 8000a18:	bf48      	it	mi
 8000a1a:	f110 0f00 	cmnmi.w	r0, #0
 8000a1e:	bd01      	pop	{r0, pc}

08000a20 <__aeabi_dcmpeq>:
 8000a20:	f84d ed08 	str.w	lr, [sp, #-8]!
 8000a24:	f7ff fff4 	bl	8000a10 <__aeabi_cdcmpeq>
 8000a28:	bf0c      	ite	eq
 8000a2a:	2001      	moveq	r0, #1
 8000a2c:	2000      	movne	r0, #0
 8000a2e:	f85d fb08 	ldr.w	pc, [sp], #8
 8000a32:	bf00      	nop

08000a34 <__aeabi_dcmplt>:
 8000a34:	f84d ed08 	str.w	lr, [sp, #-8]!
 8000a38:	f7ff ffea 	bl	8000a10 <__aeabi_cdcmpeq>
 8000a3c:	bf34      	ite	cc
 8000a3e:	2001      	movcc	r0, #1
 8000a40:	2000      	movcs	r0, #0
 8000a42:	f85d fb08 	ldr.w	pc, [sp], #8
 8000a46:	bf00      	nop

08000a48 <__aeabi_dcmple>:
 8000a48:	f84d ed08 	str.w	lr, [sp, #-8]!
 8000a4c:	f7ff ffe0 	bl	8000a10 <__aeabi_cdcmpeq>
 8000a50:	bf94      	ite	ls
 8000a52:	2001      	movls	r0, #1
 8000a54:	2000      	movhi	r0, #0
 8000a56:	f85d fb08 	ldr.w	pc, [sp], #8
 8000a5a:	bf00      	nop

08000a5c <__aeabi_dcmpge>:
 8000a5c:	f84d ed08 	str.w	lr, [sp, #-8]!
 8000a60:	f7ff ffce 	bl	8000a00 <__aeabi_cdrcmple>
 8000a64:	bf94      	ite	ls
 8000a66:	2001      	movls	r0, #1
 8000a68:	2000      	movhi	r0, #0
 8000a6a:	f85d fb08 	ldr.w	pc, [sp], #8
 8000a6e:	bf00      	nop

08000a70 <__aeabi_dcmpgt>:
 8000a70:	f84d ed08 	str.w	lr, [sp, #-8]!
 8000a74:	f7ff ffc4 	bl	8000a00 <__aeabi_cdrcmple>
 8000a78:	bf34      	ite	cc
 8000a7a:	2001      	movcc	r0, #1
 8000a7c:	2000      	movcs	r0, #0
 8000a7e:	f85d fb08 	ldr.w	pc, [sp], #8
 8000a82:	bf00      	nop

08000a84 <__aeabi_d2iz>:
 8000a84:	ea4f 0241 	mov.w	r2, r1, lsl #1
 8000a88:	f512 1200 	adds.w	r2, r2, #2097152	; 0x200000
 8000a8c:	d215      	bcs.n	8000aba <__aeabi_d2iz+0x36>
 8000a8e:	d511      	bpl.n	8000ab4 <__aeabi_d2iz+0x30>
 8000a90:	f46f 7378 	mvn.w	r3, #992	; 0x3e0
 8000a94:	ebb3 5262 	subs.w	r2, r3, r2, asr #21
 8000a98:	d912      	bls.n	8000ac0 <__aeabi_d2iz+0x3c>
 8000a9a:	ea4f 23c1 	mov.w	r3, r1, lsl #11
 8000a9e:	f043 4300 	orr.w	r3, r3, #2147483648	; 0x80000000
 8000aa2:	ea43 5350 	orr.w	r3, r3, r0, lsr #21
 8000aa6:	f011 4f00 	tst.w	r1, #2147483648	; 0x80000000
 8000aaa:	fa23 f002 	lsr.w	r0, r3, r2
 8000aae:	bf18      	it	ne
 8000ab0:	4240      	negne	r0, r0
 8000ab2:	4770      	bx	lr
 8000ab4:	f04f 0000 	mov.w	r0, #0
 8000ab8:	4770      	bx	lr
 8000aba:	ea50 3001 	orrs.w	r0, r0, r1, lsl #12
 8000abe:	d105      	bne.n	8000acc <__aeabi_d2iz+0x48>
 8000ac0:	f011 4000 	ands.w	r0, r1, #2147483648	; 0x80000000
 8000ac4:	bf08      	it	eq
 8000ac6:	f06f 4000 	mvneq.w	r0, #2147483648	; 0x80000000
 8000aca:	4770      	bx	lr
 8000acc:	f04f 0000 	mov.w	r0, #0
 8000ad0:	4770      	bx	lr
 8000ad2:	bf00      	nop

08000ad4 <__aeabi_d2uiz>:
 8000ad4:	004a      	lsls	r2, r1, #1
 8000ad6:	d211      	bcs.n	8000afc <__aeabi_d2uiz+0x28>
 8000ad8:	f512 1200 	adds.w	r2, r2, #2097152	; 0x200000
 8000adc:	d211      	bcs.n	8000b02 <__aeabi_d2uiz+0x2e>
 8000ade:	d50d      	bpl.n	8000afc <__aeabi_d2uiz+0x28>
 8000ae0:	f46f 7378 	mvn.w	r3, #992	; 0x3e0
 8000ae4:	ebb3 5262 	subs.w	r2, r3, r2, asr #21
 8000ae8:	d40e      	bmi.n	8000b08 <__aeabi_d2uiz+0x34>
 8000aea:	ea4f 23c1 	mov.w	r3, r1, lsl #11
 8000aee:	f043 4300 	orr.w	r3, r3, #2147483648	; 0x80000000
 8000af2:	ea43 5350 	orr.w	r3, r3, r0, lsr #21
 8000af6:	fa23 f002 	lsr.w	r0, r3, r2
 8000afa:	4770      	bx	lr
 8000afc:	f04f 0000 	mov.w	r0, #0
 8000b00:	4770      	bx	lr
 8000b02:	ea50 3001 	orrs.w	r0, r0, r1, lsl #12
 8000b06:	d102      	bne.n	8000b0e <__aeabi_d2uiz+0x3a>
 8000b08:	f04f 30ff 	mov.w	r0, #4294967295
 8000b0c:	4770      	bx	lr
 8000b0e:	f04f 0000 	mov.w	r0, #0
 8000b12:	4770      	bx	lr

08000b14 <__aeabi_uldivmod>:
 8000b14:	b953      	cbnz	r3, 8000b2c <__aeabi_uldivmod+0x18>
 8000b16:	b94a      	cbnz	r2, 8000b2c <__aeabi_uldivmod+0x18>
 8000b18:	2900      	cmp	r1, #0
 8000b1a:	bf08      	it	eq
 8000b1c:	2800      	cmpeq	r0, #0
 8000b1e:	bf1c      	itt	ne
 8000b20:	f04f 31ff 	movne.w	r1, #4294967295
 8000b24:	f04f 30ff 	movne.w	r0, #4294967295
 8000b28:	f000 b972 	b.w	8000e10 <__aeabi_idiv0>
 8000b2c:	f1ad 0c08 	sub.w	ip, sp, #8
 8000b30:	e96d ce04 	strd	ip, lr, [sp, #-16]!
 8000b34:	f000 f806 	bl	8000b44 <__udivmoddi4>
 8000b38:	f8dd e004 	ldr.w	lr, [sp, #4]
 8000b3c:	e9dd 2302 	ldrd	r2, r3, [sp, #8]
 8000b40:	b004      	add	sp, #16
 8000b42:	4770      	bx	lr

08000b44 <__udivmoddi4>:
 8000b44:	e92d 47f0 	stmdb	sp!, {r4, r5, r6, r7, r8, r9, sl, lr}
 8000b48:	9e08      	ldr	r6, [sp, #32]
 8000b4a:	4604      	mov	r4, r0
 8000b4c:	4688      	mov	r8, r1
 8000b4e:	2b00      	cmp	r3, #0
 8000b50:	d14b      	bne.n	8000bea <__udivmoddi4+0xa6>
 8000b52:	428a      	cmp	r2, r1
 8000b54:	4615      	mov	r5, r2
 8000b56:	d967      	bls.n	8000c28 <__udivmoddi4+0xe4>
 8000b58:	fab2 f282 	clz	r2, r2
 8000b5c:	b14a      	cbz	r2, 8000b72 <__udivmoddi4+0x2e>
 8000b5e:	f1c2 0720 	rsb	r7, r2, #32
 8000b62:	fa01 f302 	lsl.w	r3, r1, r2
 8000b66:	fa20 f707 	lsr.w	r7, r0, r7
 8000b6a:	4095      	lsls	r5, r2
 8000b6c:	ea47 0803 	orr.w	r8, r7, r3
 8000b70:	4094      	lsls	r4, r2
 8000b72:	ea4f 4e15 	mov.w	lr, r5, lsr #16
 8000b76:	0c23      	lsrs	r3, r4, #16
 8000b78:	fbb8 f7fe 	udiv	r7, r8, lr
 8000b7c:	fa1f fc85 	uxth.w	ip, r5
 8000b80:	fb0e 8817 	mls	r8, lr, r7, r8
 8000b84:	ea43 4308 	orr.w	r3, r3, r8, lsl #16
 8000b88:	fb07 f10c 	mul.w	r1, r7, ip
 8000b8c:	4299      	cmp	r1, r3
 8000b8e:	d909      	bls.n	8000ba4 <__udivmoddi4+0x60>
 8000b90:	18eb      	adds	r3, r5, r3
 8000b92:	f107 30ff 	add.w	r0, r7, #4294967295
 8000b96:	f080 811b 	bcs.w	8000dd0 <__udivmoddi4+0x28c>
 8000b9a:	4299      	cmp	r1, r3
 8000b9c:	f240 8118 	bls.w	8000dd0 <__udivmoddi4+0x28c>
 8000ba0:	3f02      	subs	r7, #2
 8000ba2:	442b      	add	r3, r5
 8000ba4:	1a5b      	subs	r3, r3, r1
 8000ba6:	b2a4      	uxth	r4, r4
 8000ba8:	fbb3 f0fe 	udiv	r0, r3, lr
 8000bac:	fb0e 3310 	mls	r3, lr, r0, r3
 8000bb0:	ea44 4403 	orr.w	r4, r4, r3, lsl #16
 8000bb4:	fb00 fc0c 	mul.w	ip, r0, ip
 8000bb8:	45a4      	cmp	ip, r4
 8000bba:	d909      	bls.n	8000bd0 <__udivmoddi4+0x8c>
 8000bbc:	192c      	adds	r4, r5, r4
 8000bbe:	f100 33ff 	add.w	r3, r0, #4294967295
 8000bc2:	f080 8107 	bcs.w	8000dd4 <__udivmoddi4+0x290>
 8000bc6:	45a4      	cmp	ip, r4
 8000bc8:	f240 8104 	bls.w	8000dd4 <__udivmoddi4+0x290>
 8000bcc:	3802      	subs	r0, #2
 8000bce:	442c      	add	r4, r5
 8000bd0:	ea40 4007 	orr.w	r0, r0, r7, lsl #16
 8000bd4:	eba4 040c 	sub.w	r4, r4, ip
 8000bd8:	2700      	movs	r7, #0
 8000bda:	b11e      	cbz	r6, 8000be4 <__udivmoddi4+0xa0>
 8000bdc:	40d4      	lsrs	r4, r2
 8000bde:	2300      	movs	r3, #0
 8000be0:	e9c6 4300 	strd	r4, r3, [r6]
 8000be4:	4639      	mov	r1, r7
 8000be6:	e8bd 87f0 	ldmia.w	sp!, {r4, r5, r6, r7, r8, r9, sl, pc}
 8000bea:	428b      	cmp	r3, r1
 8000bec:	d909      	bls.n	8000c02 <__udivmoddi4+0xbe>
 8000bee:	2e00      	cmp	r6, #0
 8000bf0:	f000 80eb 	beq.w	8000dca <__udivmoddi4+0x286>
 8000bf4:	2700      	movs	r7, #0
 8000bf6:	e9c6 0100 	strd	r0, r1, [r6]
 8000bfa:	4638      	mov	r0, r7
 8000bfc:	4639      	mov	r1, r7
 8000bfe:	e8bd 87f0 	ldmia.w	sp!, {r4, r5, r6, r7, r8, r9, sl, pc}
 8000c02:	fab3 f783 	clz	r7, r3
 8000c06:	2f00      	cmp	r7, #0
 8000c08:	d147      	bne.n	8000c9a <__udivmoddi4+0x156>
 8000c0a:	428b      	cmp	r3, r1
 8000c0c:	d302      	bcc.n	8000c14 <__udivmoddi4+0xd0>
 8000c0e:	4282      	cmp	r2, r0
 8000c10:	f200 80fa 	bhi.w	8000e08 <__udivmoddi4+0x2c4>
 8000c14:	1a84      	subs	r4, r0, r2
 8000c16:	eb61 0303 	sbc.w	r3, r1, r3
 8000c1a:	2001      	movs	r0, #1
 8000c1c:	4698      	mov	r8, r3
 8000c1e:	2e00      	cmp	r6, #0
 8000c20:	d0e0      	beq.n	8000be4 <__udivmoddi4+0xa0>
 8000c22:	e9c6 4800 	strd	r4, r8, [r6]
 8000c26:	e7dd      	b.n	8000be4 <__udivmoddi4+0xa0>
 8000c28:	b902      	cbnz	r2, 8000c2c <__udivmoddi4+0xe8>
 8000c2a:	deff      	udf	#255	; 0xff
 8000c2c:	fab2 f282 	clz	r2, r2
 8000c30:	2a00      	cmp	r2, #0
 8000c32:	f040 808f 	bne.w	8000d54 <__udivmoddi4+0x210>
 8000c36:	1b49      	subs	r1, r1, r5
 8000c38:	ea4f 4e15 	mov.w	lr, r5, lsr #16
 8000c3c:	fa1f f885 	uxth.w	r8, r5
 8000c40:	2701      	movs	r7, #1
 8000c42:	fbb1 fcfe 	udiv	ip, r1, lr
 8000c46:	0c23      	lsrs	r3, r4, #16
 8000c48:	fb0e 111c 	mls	r1, lr, ip, r1
 8000c4c:	ea43 4301 	orr.w	r3, r3, r1, lsl #16
 8000c50:	fb08 f10c 	mul.w	r1, r8, ip
 8000c54:	4299      	cmp	r1, r3
 8000c56:	d907      	bls.n	8000c68 <__udivmoddi4+0x124>
 8000c58:	18eb      	adds	r3, r5, r3
 8000c5a:	f10c 30ff 	add.w	r0, ip, #4294967295
 8000c5e:	d202      	bcs.n	8000c66 <__udivmoddi4+0x122>
 8000c60:	4299      	cmp	r1, r3
 8000c62:	f200 80cd 	bhi.w	8000e00 <__udivmoddi4+0x2bc>
 8000c66:	4684      	mov	ip, r0
 8000c68:	1a59      	subs	r1, r3, r1
 8000c6a:	b2a3      	uxth	r3, r4
 8000c6c:	fbb1 f0fe 	udiv	r0, r1, lr
 8000c70:	fb0e 1410 	mls	r4, lr, r0, r1
 8000c74:	ea43 4404 	orr.w	r4, r3, r4, lsl #16
 8000c78:	fb08 f800 	mul.w	r8, r8, r0
 8000c7c:	45a0      	cmp	r8, r4
 8000c7e:	d907      	bls.n	8000c90 <__udivmoddi4+0x14c>
 8000c80:	192c      	adds	r4, r5, r4
 8000c82:	f100 33ff 	add.w	r3, r0, #4294967295
 8000c86:	d202      	bcs.n	8000c8e <__udivmoddi4+0x14a>
 8000c88:	45a0      	cmp	r8, r4
 8000c8a:	f200 80b6 	bhi.w	8000dfa <__udivmoddi4+0x2b6>
 8000c8e:	4618      	mov	r0, r3
 8000c90:	eba4 0408 	sub.w	r4, r4, r8
 8000c94:	ea40 400c 	orr.w	r0, r0, ip, lsl #16
 8000c98:	e79f      	b.n	8000bda <__udivmoddi4+0x96>
 8000c9a:	f1c7 0c20 	rsb	ip, r7, #32
 8000c9e:	40bb      	lsls	r3, r7
 8000ca0:	fa22 fe0c 	lsr.w	lr, r2, ip
 8000ca4:	ea4e 0e03 	orr.w	lr, lr, r3
 8000ca8:	fa01 f407 	lsl.w	r4, r1, r7
 8000cac:	fa20 f50c 	lsr.w	r5, r0, ip
 8000cb0:	fa21 f30c 	lsr.w	r3, r1, ip
 8000cb4:	ea4f 481e 	mov.w	r8, lr, lsr #16
 8000cb8:	4325      	orrs	r5, r4
 8000cba:	fbb3 f9f8 	udiv	r9, r3, r8
 8000cbe:	0c2c      	lsrs	r4, r5, #16
 8000cc0:	fb08 3319 	mls	r3, r8, r9, r3
 8000cc4:	fa1f fa8e 	uxth.w	sl, lr
 8000cc8:	ea44 4303 	orr.w	r3, r4, r3, lsl #16
 8000ccc:	fb09 f40a 	mul.w	r4, r9, sl
 8000cd0:	429c      	cmp	r4, r3
 8000cd2:	fa02 f207 	lsl.w	r2, r2, r7
 8000cd6:	fa00 f107 	lsl.w	r1, r0, r7
 8000cda:	d90b      	bls.n	8000cf4 <__udivmoddi4+0x1b0>
 8000cdc:	eb1e 0303 	adds.w	r3, lr, r3
 8000ce0:	f109 30ff 	add.w	r0, r9, #4294967295
 8000ce4:	f080 8087 	bcs.w	8000df6 <__udivmoddi4+0x2b2>
 8000ce8:	429c      	cmp	r4, r3
 8000cea:	f240 8084 	bls.w	8000df6 <__udivmoddi4+0x2b2>
 8000cee:	f1a9 0902 	sub.w	r9, r9, #2
 8000cf2:	4473      	add	r3, lr
 8000cf4:	1b1b      	subs	r3, r3, r4
 8000cf6:	b2ad      	uxth	r5, r5
 8000cf8:	fbb3 f0f8 	udiv	r0, r3, r8
 8000cfc:	fb08 3310 	mls	r3, r8, r0, r3
 8000d00:	ea45 4403 	orr.w	r4, r5, r3, lsl #16
 8000d04:	fb00 fa0a 	mul.w	sl, r0, sl
 8000d08:	45a2      	cmp	sl, r4
 8000d0a:	d908      	bls.n	8000d1e <__udivmoddi4+0x1da>
 8000d0c:	eb1e 0404 	adds.w	r4, lr, r4
 8000d10:	f100 33ff 	add.w	r3, r0, #4294967295
 8000d14:	d26b      	bcs.n	8000dee <__udivmoddi4+0x2aa>
 8000d16:	45a2      	cmp	sl, r4
 8000d18:	d969      	bls.n	8000dee <__udivmoddi4+0x2aa>
 8000d1a:	3802      	subs	r0, #2
 8000d1c:	4474      	add	r4, lr
 8000d1e:	ea40 4009 	orr.w	r0, r0, r9, lsl #16
 8000d22:	fba0 8902 	umull	r8, r9, r0, r2
 8000d26:	eba4 040a 	sub.w	r4, r4, sl
 8000d2a:	454c      	cmp	r4, r9
 8000d2c:	46c2      	mov	sl, r8
 8000d2e:	464b      	mov	r3, r9
 8000d30:	d354      	bcc.n	8000ddc <__udivmoddi4+0x298>
 8000d32:	d051      	beq.n	8000dd8 <__udivmoddi4+0x294>
 8000d34:	2e00      	cmp	r6, #0
 8000d36:	d069      	beq.n	8000e0c <__udivmoddi4+0x2c8>
 8000d38:	ebb1 050a 	subs.w	r5, r1, sl
 8000d3c:	eb64 0403 	sbc.w	r4, r4, r3
 8000d40:	fa04 fc0c 	lsl.w	ip, r4, ip
 8000d44:	40fd      	lsrs	r5, r7
 8000d46:	40fc      	lsrs	r4, r7
 8000d48:	ea4c 0505 	orr.w	r5, ip, r5
 8000d4c:	e9c6 5400 	strd	r5, r4, [r6]
 8000d50:	2700      	movs	r7, #0
 8000d52:	e747      	b.n	8000be4 <__udivmoddi4+0xa0>
 8000d54:	f1c2 0320 	rsb	r3, r2, #32
 8000d58:	fa20 f703 	lsr.w	r7, r0, r3
 8000d5c:	4095      	lsls	r5, r2
 8000d5e:	fa01 f002 	lsl.w	r0, r1, r2
 8000d62:	fa21 f303 	lsr.w	r3, r1, r3
 8000d66:	ea4f 4e15 	mov.w	lr, r5, lsr #16
 8000d6a:	4338      	orrs	r0, r7
 8000d6c:	0c01      	lsrs	r1, r0, #16
 8000d6e:	fbb3 f7fe 	udiv	r7, r3, lr
 8000d72:	fa1f f885 	uxth.w	r8, r5
 8000d76:	fb0e 3317 	mls	r3, lr, r7, r3
 8000d7a:	ea41 4103 	orr.w	r1, r1, r3, lsl #16
 8000d7e:	fb07 f308 	mul.w	r3, r7, r8
 8000d82:	428b      	cmp	r3, r1
 8000d84:	fa04 f402 	lsl.w	r4, r4, r2
 8000d88:	d907      	bls.n	8000d9a <__udivmoddi4+0x256>
 8000d8a:	1869      	adds	r1, r5, r1
 8000d8c:	f107 3cff 	add.w	ip, r7, #4294967295
 8000d90:	d22f      	bcs.n	8000df2 <__udivmoddi4+0x2ae>
 8000d92:	428b      	cmp	r3, r1
 8000d94:	d92d      	bls.n	8000df2 <__udivmoddi4+0x2ae>
 8000d96:	3f02      	subs	r7, #2
 8000d98:	4429      	add	r1, r5
 8000d9a:	1acb      	subs	r3, r1, r3
 8000d9c:	b281      	uxth	r1, r0
 8000d9e:	fbb3 f0fe 	udiv	r0, r3, lr
 8000da2:	fb0e 3310 	mls	r3, lr, r0, r3
 8000da6:	ea41 4103 	orr.w	r1, r1, r3, lsl #16
 8000daa:	fb00 f308 	mul.w	r3, r0, r8
 8000dae:	428b      	cmp	r3, r1
 8000db0:	d907      	bls.n	8000dc2 <__udivmoddi4+0x27e>
 8000db2:	1869      	adds	r1, r5, r1
 8000db4:	f100 3cff 	add.w	ip, r0, #4294967295
 8000db8:	d217      	bcs.n	8000dea <__udivmoddi4+0x2a6>
 8000dba:	428b      	cmp	r3, r1
 8000dbc:	d915      	bls.n	8000dea <__udivmoddi4+0x2a6>
 8000dbe:	3802      	subs	r0, #2
 8000dc0:	4429      	add	r1, r5
 8000dc2:	1ac9      	subs	r1, r1, r3
 8000dc4:	ea40 4707 	orr.w	r7, r0, r7, lsl #16
 8000dc8:	e73b      	b.n	8000c42 <__udivmoddi4+0xfe>
 8000dca:	4637      	mov	r7, r6
 8000dcc:	4630      	mov	r0, r6
 8000dce:	e709      	b.n	8000be4 <__udivmoddi4+0xa0>
 8000dd0:	4607      	mov	r7, r0
 8000dd2:	e6e7      	b.n	8000ba4 <__udivmoddi4+0x60>
 8000dd4:	4618      	mov	r0, r3
 8000dd6:	e6fb      	b.n	8000bd0 <__udivmoddi4+0x8c>
 8000dd8:	4541      	cmp	r1, r8
 8000dda:	d2ab      	bcs.n	8000d34 <__udivmoddi4+0x1f0>
 8000ddc:	ebb8 0a02 	subs.w	sl, r8, r2
 8000de0:	eb69 020e 	sbc.w	r2, r9, lr
 8000de4:	3801      	subs	r0, #1
 8000de6:	4613      	mov	r3, r2
 8000de8:	e7a4      	b.n	8000d34 <__udivmoddi4+0x1f0>
 8000dea:	4660      	mov	r0, ip
 8000dec:	e7e9      	b.n	8000dc2 <__udivmoddi4+0x27e>
 8000dee:	4618      	mov	r0, r3
 8000df0:	e795      	b.n	8000d1e <__udivmoddi4+0x1da>
 8000df2:	4667      	mov	r7, ip
 8000df4:	e7d1      	b.n	8000d9a <__udivmoddi4+0x256>
 8000df6:	4681      	mov	r9, r0
 8000df8:	e77c      	b.n	8000cf4 <__udivmoddi4+0x1b0>
 8000dfa:	3802      	subs	r0, #2
 8000dfc:	442c      	add	r4, r5
 8000dfe:	e747      	b.n	8000c90 <__udivmoddi4+0x14c>
 8000e00:	f1ac 0c02 	sub.w	ip, ip, #2
 8000e04:	442b      	add	r3, r5
 8000e06:	e72f      	b.n	8000c68 <__udivmoddi4+0x124>
 8000e08:	4638      	mov	r0, r7
 8000e0a:	e708      	b.n	8000c1e <__udivmoddi4+0xda>
 8000e0c:	4637      	mov	r7, r6
 8000e0e:	e6e9      	b.n	8000be4 <__udivmoddi4+0xa0>

08000e10 <__aeabi_idiv0>:
 8000e10:	4770      	bx	lr
 8000e12:	bf00      	nop
 8000e14:	0000      	movs	r0, r0
	...

08000e18 <identificador>:
 8000e18:	e92d 47f0 	stmdb	sp!, {r4, r5, r6, r7, r8, r9, sl, lr}
 8000e1c:	ed2d 8b0c 	vpush	{d8-d13}
 8000e20:	b0b6      	sub	sp, #216	; 0xd8
 8000e22:	4615      	mov	r5, r2
 8000e24:	4682      	mov	sl, r0
 8000e26:	4689      	mov	r9, r1
 8000e28:	a801      	add	r0, sp, #4
 8000e2a:	2232      	movs	r2, #50	; 0x32
 8000e2c:	2100      	movs	r1, #0
 8000e2e:	f002 fef7 	bl	8003c20 <memset>
 8000e32:	2d00      	cmp	r5, #0
 8000e34:	f340 80ef 	ble.w	8001016 <identificador+0x1fe>
 8000e38:	ed9f cb7b 	vldr	d12, [pc, #492]	; 8001028 <identificador+0x210>
 8000e3c:	ed9f bb7c 	vldr	d11, [pc, #496]	; 8001030 <identificador+0x218>
 8000e40:	ed9f ab7d 	vldr	d10, [pc, #500]	; 8001038 <identificador+0x220>
 8000e44:	ed9f 9b7e 	vldr	d9, [pc, #504]	; 8001040 <identificador+0x228>
 8000e48:	ed9f 8b7f 	vldr	d8, [pc, #508]	; 8001048 <identificador+0x230>
 8000e4c:	ed9f db80 	vldr	d13, [pc, #512]	; 8001050 <identificador+0x238>
 8000e50:	f04f 0800 	mov.w	r8, #0
 8000e54:	4644      	mov	r4, r8
 8000e56:	4622      	mov	r2, r4
 8000e58:	3401      	adds	r4, #1
 8000e5a:	f81a 3002 	ldrb.w	r3, [sl, r2]
 8000e5e:	3b41      	subs	r3, #65	; 0x41
 8000e60:	2b31      	cmp	r3, #49	; 0x31
 8000e62:	d822      	bhi.n	8000eaa <identificador+0x92>
 8000e64:	e8df f003 	tbb	[pc, r3]
 8000e68:	a12121b2 	.word	0xa12121b2
 8000e6c:	81212191 	.word	0x81212191
 8000e70:	21212138 	.word	0x21212138
 8000e74:	29212121 	.word	0x29212121
 8000e78:	21211921 	.word	0x21211921
 8000e7c:	21212121 	.word	0x21212121
 8000e80:	21212121 	.word	0x21212121
 8000e84:	21212121 	.word	0x21212121
 8000e88:	a12121b2 	.word	0xa12121b2
 8000e8c:	81212191 	.word	0x81212191
 8000e90:	21212138 	.word	0x21212138
 8000e94:	29212121 	.word	0x29212121
 8000e98:	1921      	.short	0x1921
 8000e9a:	4452      	add	r2, sl
 8000e9c:	7853      	ldrb	r3, [r2, #1]
 8000e9e:	2b2d      	cmp	r3, #45	; 0x2d
 8000ea0:	f000 80af 	beq.w	8001002 <identificador+0x1ea>
 8000ea4:	2b3a      	cmp	r3, #58	; 0x3a
 8000ea6:	f000 80ac 	beq.w	8001002 <identificador+0x1ea>
 8000eaa:	42a5      	cmp	r5, r4
 8000eac:	dcd3      	bgt.n	8000e56 <identificador+0x3e>
 8000eae:	4640      	mov	r0, r8
 8000eb0:	b036      	add	sp, #216	; 0xd8
 8000eb2:	ecbd 8b0c 	vpop	{d8-d13}
 8000eb6:	e8bd 87f0 	ldmia.w	sp!, {r4, r5, r6, r7, r8, r9, sl, pc}
 8000eba:	4452      	add	r2, sl
 8000ebc:	7853      	ldrb	r3, [r2, #1]
 8000ebe:	2b2d      	cmp	r3, #45	; 0x2d
 8000ec0:	d001      	beq.n	8000ec6 <identificador+0xae>
 8000ec2:	2b3a      	cmp	r3, #58	; 0x3a
 8000ec4:	d1f1      	bne.n	8000eaa <identificador+0x92>
 8000ec6:	eb09 03c8 	add.w	r3, r9, r8, lsl #3
 8000eca:	42a5      	cmp	r5, r4
 8000ecc:	ed83 cb00 	vstr	d12, [r3]
 8000ed0:	f108 0801 	add.w	r8, r8, #1
 8000ed4:	dcbf      	bgt.n	8000e56 <identificador+0x3e>
 8000ed6:	e7ea      	b.n	8000eae <identificador+0x96>
 8000ed8:	f81a 3004 	ldrb.w	r3, [sl, r4]
 8000edc:	2b2d      	cmp	r3, #45	; 0x2d
 8000ede:	af0e      	add	r7, sp, #56	; 0x38
 8000ee0:	f04f 0600 	mov.w	r6, #0
 8000ee4:	d027      	beq.n	8000f36 <identificador+0x11e>
 8000ee6:	42ac      	cmp	r4, r5
 8000ee8:	da25      	bge.n	8000f36 <identificador+0x11e>
 8000eea:	1c62      	adds	r2, r4, #1
 8000eec:	2b5f      	cmp	r3, #95	; 0x5f
 8000eee:	f81a 1002 	ldrb.w	r1, [sl, r2]
 8000ef2:	d07c      	beq.n	8000fee <identificador+0x1d6>
 8000ef4:	eb0a 0004 	add.w	r0, sl, r4
 8000ef8:	a901      	add	r1, sp, #4
 8000efa:	e004      	b.n	8000f06 <identificador+0xee>
 8000efc:	4295      	cmp	r5, r2
 8000efe:	dd09      	ble.n	8000f14 <identificador+0xfc>
 8000f00:	2b2d      	cmp	r3, #45	; 0x2d
 8000f02:	d007      	beq.n	8000f14 <identificador+0xfc>
 8000f04:	3201      	adds	r2, #1
 8000f06:	f801 3b01 	strb.w	r3, [r1], #1
 8000f0a:	f810 3f01 	ldrb.w	r3, [r0, #1]!
 8000f0e:	2b5f      	cmp	r3, #95	; 0x5f
 8000f10:	4614      	mov	r4, r2
 8000f12:	d1f3      	bne.n	8000efc <identificador+0xe4>
 8000f14:	4669      	mov	r1, sp
 8000f16:	a801      	add	r0, sp, #4
 8000f18:	f003 fc9a 	bl	8004850 <strtod>
 8000f1c:	2233      	movs	r2, #51	; 0x33
 8000f1e:	2100      	movs	r1, #0
 8000f20:	a801      	add	r0, sp, #4
 8000f22:	eca7 0b02 	vstmia	r7!, {d0}
 8000f26:	f002 fe7b 	bl	8003c20 <memset>
 8000f2a:	f81a 3004 	ldrb.w	r3, [sl, r4]
 8000f2e:	2b2d      	cmp	r3, #45	; 0x2d
 8000f30:	f106 0601 	add.w	r6, r6, #1
 8000f34:	d1d7      	bne.n	8000ee6 <identificador+0xce>
 8000f36:	2e03      	cmp	r6, #3
 8000f38:	d1b7      	bne.n	8000eaa <identificador+0x92>
 8000f3a:	e9dd 010e 	ldrd	r0, r1, [sp, #56]	; 0x38
 8000f3e:	4f46      	ldr	r7, [pc, #280]	; (8001058 <identificador+0x240>)
 8000f40:	eb09 03c8 	add.w	r3, r9, r8, lsl #3
 8000f44:	2600      	movs	r6, #0
 8000f46:	e9c3 6700 	strd	r6, r7, [r3]
 8000f4a:	e9c3 0102 	strd	r0, r1, [r3, #8]
 8000f4e:	e9dd 6710 	ldrd	r6, r7, [sp, #64]	; 0x40
 8000f52:	e9dd 0112 	ldrd	r0, r1, [sp, #72]	; 0x48
 8000f56:	42a5      	cmp	r5, r4
 8000f58:	e9c3 6704 	strd	r6, r7, [r3, #16]
 8000f5c:	e9c3 0106 	strd	r0, r1, [r3, #24]
 8000f60:	f108 0804 	add.w	r8, r8, #4
 8000f64:	f73f af77 	bgt.w	8000e56 <identificador+0x3e>
 8000f68:	e7a1      	b.n	8000eae <identificador+0x96>
 8000f6a:	4452      	add	r2, sl
 8000f6c:	7853      	ldrb	r3, [r2, #1]
 8000f6e:	2b2d      	cmp	r3, #45	; 0x2d
 8000f70:	d001      	beq.n	8000f76 <identificador+0x15e>
 8000f72:	2b3a      	cmp	r3, #58	; 0x3a
 8000f74:	d199      	bne.n	8000eaa <identificador+0x92>
 8000f76:	eb09 03c8 	add.w	r3, r9, r8, lsl #3
 8000f7a:	42a5      	cmp	r5, r4
 8000f7c:	ed83 ab00 	vstr	d10, [r3]
 8000f80:	f108 0801 	add.w	r8, r8, #1
 8000f84:	f73f af67 	bgt.w	8000e56 <identificador+0x3e>
 8000f88:	e791      	b.n	8000eae <identificador+0x96>
 8000f8a:	4452      	add	r2, sl
 8000f8c:	7853      	ldrb	r3, [r2, #1]
 8000f8e:	2b2d      	cmp	r3, #45	; 0x2d
 8000f90:	d001      	beq.n	8000f96 <identificador+0x17e>
 8000f92:	2b3a      	cmp	r3, #58	; 0x3a
 8000f94:	d189      	bne.n	8000eaa <identificador+0x92>
 8000f96:	eb09 03c8 	add.w	r3, r9, r8, lsl #3
 8000f9a:	42a5      	cmp	r5, r4
 8000f9c:	ed83 bb00 	vstr	d11, [r3]
 8000fa0:	f108 0801 	add.w	r8, r8, #1
 8000fa4:	f73f af57 	bgt.w	8000e56 <identificador+0x3e>
 8000fa8:	e781      	b.n	8000eae <identificador+0x96>
 8000faa:	4452      	add	r2, sl
 8000fac:	7853      	ldrb	r3, [r2, #1]
 8000fae:	2b2d      	cmp	r3, #45	; 0x2d
 8000fb0:	d002      	beq.n	8000fb8 <identificador+0x1a0>
 8000fb2:	2b3a      	cmp	r3, #58	; 0x3a
 8000fb4:	f47f af79 	bne.w	8000eaa <identificador+0x92>
 8000fb8:	eb09 03c8 	add.w	r3, r9, r8, lsl #3
 8000fbc:	42a5      	cmp	r5, r4
 8000fbe:	ed83 9b00 	vstr	d9, [r3]
 8000fc2:	f108 0801 	add.w	r8, r8, #1
 8000fc6:	f73f af46 	bgt.w	8000e56 <identificador+0x3e>
 8000fca:	e770      	b.n	8000eae <identificador+0x96>
 8000fcc:	4452      	add	r2, sl
 8000fce:	7853      	ldrb	r3, [r2, #1]
 8000fd0:	2b2d      	cmp	r3, #45	; 0x2d
 8000fd2:	d002      	beq.n	8000fda <identificador+0x1c2>
 8000fd4:	2b3a      	cmp	r3, #58	; 0x3a
 8000fd6:	f47f af68 	bne.w	8000eaa <identificador+0x92>
 8000fda:	eb09 03c8 	add.w	r3, r9, r8, lsl #3
 8000fde:	42a5      	cmp	r5, r4
 8000fe0:	ed83 8b00 	vstr	d8, [r3]
 8000fe4:	f108 0801 	add.w	r8, r8, #1
 8000fe8:	f73f af35 	bgt.w	8000e56 <identificador+0x3e>
 8000fec:	e75f      	b.n	8000eae <identificador+0x96>
 8000fee:	295f      	cmp	r1, #95	; 0x5f
 8000ff0:	4614      	mov	r4, r2
 8000ff2:	d08f      	beq.n	8000f14 <identificador+0xfc>
 8000ff4:	4295      	cmp	r5, r2
 8000ff6:	dd8d      	ble.n	8000f14 <identificador+0xfc>
 8000ff8:	292d      	cmp	r1, #45	; 0x2d
 8000ffa:	d08b      	beq.n	8000f14 <identificador+0xfc>
 8000ffc:	460b      	mov	r3, r1
 8000ffe:	3201      	adds	r2, #1
 8001000:	e778      	b.n	8000ef4 <identificador+0xdc>
 8001002:	eb09 03c8 	add.w	r3, r9, r8, lsl #3
 8001006:	42a5      	cmp	r5, r4
 8001008:	ed83 db00 	vstr	d13, [r3]
 800100c:	f108 0801 	add.w	r8, r8, #1
 8001010:	f73f af21 	bgt.w	8000e56 <identificador+0x3e>
 8001014:	e74b      	b.n	8000eae <identificador+0x96>
 8001016:	f04f 0800 	mov.w	r8, #0
 800101a:	4640      	mov	r0, r8
 800101c:	b036      	add	sp, #216	; 0xd8
 800101e:	ecbd 8b0c 	vpop	{d8-d13}
 8001022:	e8bd 87f0 	ldmia.w	sp!, {r4, r5, r6, r7, r8, r9, sl, pc}
 8001026:	bf00      	nop
 8001028:	00000000 	.word	0x00000000
 800102c:	40180000 	.word	0x40180000
 8001030:	00000000 	.word	0x00000000
 8001034:	40140000 	.word	0x40140000
 8001038:	00000000 	.word	0x00000000
 800103c:	40080000 	.word	0x40080000
 8001040:	00000000 	.word	0x00000000
 8001044:	3ff00000 	.word	0x3ff00000
	...
 8001054:	40000000 	.word	0x40000000
 8001058:	40100000 	.word	0x40100000

0800105c <MX_GPIO_Init>:
 800105c:	b5f0      	push	{r4, r5, r6, r7, lr}
 800105e:	2400      	movs	r4, #0
 8001060:	b089      	sub	sp, #36	; 0x24
 8001062:	e9cd 4403 	strd	r4, r4, [sp, #12]
 8001066:	e9cd 4405 	strd	r4, r4, [sp, #20]
 800106a:	4b21      	ldr	r3, [pc, #132]	; (80010f0 <MX_GPIO_Init+0x94>)
 800106c:	9400      	str	r4, [sp, #0]
 800106e:	9407      	str	r4, [sp, #28]
 8001070:	6b1a      	ldr	r2, [r3, #48]	; 0x30
 8001072:	4e20      	ldr	r6, [pc, #128]	; (80010f4 <MX_GPIO_Init+0x98>)
 8001074:	4d20      	ldr	r5, [pc, #128]	; (80010f8 <MX_GPIO_Init+0x9c>)
 8001076:	f042 0210 	orr.w	r2, r2, #16
 800107a:	631a      	str	r2, [r3, #48]	; 0x30
 800107c:	6b1a      	ldr	r2, [r3, #48]	; 0x30
 800107e:	f002 0210 	and.w	r2, r2, #16
 8001082:	9200      	str	r2, [sp, #0]
 8001084:	9a00      	ldr	r2, [sp, #0]
 8001086:	9401      	str	r4, [sp, #4]
 8001088:	6b1a      	ldr	r2, [r3, #48]	; 0x30
 800108a:	f042 0204 	orr.w	r2, r2, #4
 800108e:	631a      	str	r2, [r3, #48]	; 0x30
 8001090:	6b1a      	ldr	r2, [r3, #48]	; 0x30
 8001092:	f002 0204 	and.w	r2, r2, #4
 8001096:	9201      	str	r2, [sp, #4]
 8001098:	9a01      	ldr	r2, [sp, #4]
 800109a:	9402      	str	r4, [sp, #8]
 800109c:	6b1a      	ldr	r2, [r3, #48]	; 0x30
 800109e:	f042 0202 	orr.w	r2, r2, #2
 80010a2:	631a      	str	r2, [r3, #48]	; 0x30
 80010a4:	6b1b      	ldr	r3, [r3, #48]	; 0x30
 80010a6:	f003 0302 	and.w	r3, r3, #2
 80010aa:	9302      	str	r3, [sp, #8]
 80010ac:	4622      	mov	r2, r4
 80010ae:	4630      	mov	r0, r6
 80010b0:	2106      	movs	r1, #6
 80010b2:	9b02      	ldr	r3, [sp, #8]
 80010b4:	f000 fdf8 	bl	8001ca8 <HAL_GPIO_WritePin>
 80010b8:	4622      	mov	r2, r4
 80010ba:	4628      	mov	r0, r5
 80010bc:	f44f 7140 	mov.w	r1, #768	; 0x300
 80010c0:	f000 fdf2 	bl	8001ca8 <HAL_GPIO_WritePin>
 80010c4:	2701      	movs	r7, #1
 80010c6:	4630      	mov	r0, r6
 80010c8:	a903      	add	r1, sp, #12
 80010ca:	2306      	movs	r3, #6
 80010cc:	e9cd 3703 	strd	r3, r7, [sp, #12]
 80010d0:	e9cd 4405 	strd	r4, r4, [sp, #20]
 80010d4:	f000 fce4 	bl	8001aa0 <HAL_GPIO_Init>
 80010d8:	f44f 7340 	mov.w	r3, #768	; 0x300
 80010dc:	a903      	add	r1, sp, #12
 80010de:	4628      	mov	r0, r5
 80010e0:	e9cd 7404 	strd	r7, r4, [sp, #16]
 80010e4:	9406      	str	r4, [sp, #24]
 80010e6:	9303      	str	r3, [sp, #12]
 80010e8:	f000 fcda 	bl	8001aa0 <HAL_GPIO_Init>
 80010ec:	b009      	add	sp, #36	; 0x24
 80010ee:	bdf0      	pop	{r4, r5, r6, r7, pc}
 80010f0:	40023800 	.word	0x40023800
 80010f4:	40021000 	.word	0x40021000
 80010f8:	40020800 	.word	0x40020800

080010fc <SystemClock_Config>:
 80010fc:	b530      	push	{r4, r5, lr}
 80010fe:	2400      	movs	r4, #0
 8001100:	b095      	sub	sp, #84	; 0x54
 8001102:	e9cd 440b 	strd	r4, r4, [sp, #44]	; 0x2c
 8001106:	e9cd 4409 	strd	r4, r4, [sp, #36]	; 0x24
 800110a:	e9cd 4404 	strd	r4, r4, [sp, #16]
 800110e:	e9cd 4406 	strd	r4, r4, [sp, #24]
 8001112:	4a1c      	ldr	r2, [pc, #112]	; (8001184 <SystemClock_Config+0x88>)
 8001114:	9401      	str	r4, [sp, #4]
 8001116:	940d      	str	r4, [sp, #52]	; 0x34
 8001118:	9403      	str	r4, [sp, #12]
 800111a:	6c11      	ldr	r1, [r2, #64]	; 0x40
 800111c:	4b1a      	ldr	r3, [pc, #104]	; (8001188 <SystemClock_Config+0x8c>)
 800111e:	f041 5180 	orr.w	r1, r1, #268435456	; 0x10000000
 8001122:	6411      	str	r1, [r2, #64]	; 0x40
 8001124:	6c12      	ldr	r2, [r2, #64]	; 0x40
 8001126:	f002 5280 	and.w	r2, r2, #268435456	; 0x10000000
 800112a:	9201      	str	r2, [sp, #4]
 800112c:	9a01      	ldr	r2, [sp, #4]
 800112e:	9402      	str	r4, [sp, #8]
 8001130:	681a      	ldr	r2, [r3, #0]
 8001132:	f442 4280 	orr.w	r2, r2, #16384	; 0x4000
 8001136:	601a      	str	r2, [r3, #0]
 8001138:	681b      	ldr	r3, [r3, #0]
 800113a:	940f      	str	r4, [sp, #60]	; 0x3c
 800113c:	f403 4380 	and.w	r3, r3, #16384	; 0x4000
 8001140:	9302      	str	r3, [sp, #8]
 8001142:	2201      	movs	r2, #1
 8001144:	2310      	movs	r3, #16
 8001146:	2502      	movs	r5, #2
 8001148:	2108      	movs	r1, #8
 800114a:	9802      	ldr	r0, [sp, #8]
 800114c:	920b      	str	r2, [sp, #44]	; 0x2c
 800114e:	930c      	str	r3, [sp, #48]	; 0x30
 8001150:	22a8      	movs	r2, #168	; 0xa8
 8001152:	2307      	movs	r3, #7
 8001154:	a808      	add	r0, sp, #32
 8001156:	9110      	str	r1, [sp, #64]	; 0x40
 8001158:	9211      	str	r2, [sp, #68]	; 0x44
 800115a:	9313      	str	r3, [sp, #76]	; 0x4c
 800115c:	9508      	str	r5, [sp, #32]
 800115e:	950e      	str	r5, [sp, #56]	; 0x38
 8001160:	9512      	str	r5, [sp, #72]	; 0x48
 8001162:	f000 fda5 	bl	8001cb0 <HAL_RCC_OscConfig>
 8001166:	220f      	movs	r2, #15
 8001168:	f44f 53c0 	mov.w	r3, #6144	; 0x1800
 800116c:	a803      	add	r0, sp, #12
 800116e:	2105      	movs	r1, #5
 8001170:	e9cd 5404 	strd	r5, r4, [sp, #16]
 8001174:	9203      	str	r2, [sp, #12]
 8001176:	e9cd 3306 	strd	r3, r3, [sp, #24]
 800117a:	f000 ffad 	bl	80020d8 <HAL_RCC_ClockConfig>
 800117e:	b015      	add	sp, #84	; 0x54
 8001180:	bd30      	pop	{r4, r5, pc}
 8001182:	bf00      	nop
 8001184:	40023800 	.word	0x40023800
 8001188:	40007000 	.word	0x40007000

0800118c <main>:
 800118c:	e92d 4ff0 	stmdb	sp!, {r4, r5, r6, r7, r8, r9, sl, fp, lr}
 8001190:	b0e7      	sub	sp, #412	; 0x19c
 8001192:	f44f 72c8 	mov.w	r2, #400	; 0x190
 8001196:	2100      	movs	r1, #0
 8001198:	a802      	add	r0, sp, #8
 800119a:	f002 fd41 	bl	8003c20 <memset>
 800119e:	f000 fbd1 	bl	8001944 <HAL_Init>
 80011a2:	f7ff ffab 	bl	80010fc <SystemClock_Config>
 80011a6:	f7ff ff59 	bl	800105c <MX_GPIO_Init>
 80011aa:	f000 f9b7 	bl	800151c <MX_TIM1_Init>
 80011ae:	f000 f9e9 	bl	8001584 <MX_TIM3_Init>
 80011b2:	f000 fa1b 	bl	80015ec <MX_TIM9_Init>
 80011b6:	f000 fa5f 	bl	8001678 <MX_TIM12_Init>
 80011ba:	f000 f8cf 	bl	800135c <MX_SPI2_Init>
 80011be:	2201      	movs	r2, #1
 80011c0:	4948      	ldr	r1, [pc, #288]	; (80012e4 <main+0x158>)
 80011c2:	4849      	ldr	r0, [pc, #292]	; (80012e8 <main+0x15c>)
 80011c4:	4c49      	ldr	r4, [pc, #292]	; (80012ec <main+0x160>)
 80011c6:	f8df 9134 	ldr.w	r9, [pc, #308]	; 80012fc <main+0x170>
 80011ca:	f8df b11c 	ldr.w	fp, [pc, #284]	; 80012e8 <main+0x15c>
 80011ce:	f001 f8e9 	bl	80023a4 <HAL_SPI_Receive_IT>
 80011d2:	f04f 0800 	mov.w	r8, #0
 80011d6:	4646      	mov	r6, r8
 80011d8:	2701      	movs	r7, #1
 80011da:	2500      	movs	r5, #0
 80011dc:	f04f 0a01 	mov.w	sl, #1
 80011e0:	4628      	mov	r0, r5
 80011e2:	6825      	ldr	r5, [r4, #0]
 80011e4:	2d00      	cmp	r5, #0
 80011e6:	d060      	beq.n	80012aa <main+0x11e>
 80011e8:	6823      	ldr	r3, [r4, #0]
 80011ea:	2b01      	cmp	r3, #1
 80011ec:	d1f9      	bne.n	80011e2 <main+0x56>
 80011ee:	2800      	cmp	r0, #0
 80011f0:	4605      	mov	r5, r0
 80011f2:	dd18      	ble.n	8001226 <main+0x9a>
 80011f4:	f04f 0a00 	mov.w	sl, #0
 80011f8:	ab02      	add	r3, sp, #8
 80011fa:	eb03 03ca 	add.w	r3, r3, sl, lsl #3
 80011fe:	e9d3 0100 	ldrd	r0, r1, [r3]
 8001202:	f7ff fc3f 	bl	8000a84 <__aeabi_d2iz>
 8001206:	2806      	cmp	r0, #6
 8001208:	d809      	bhi.n	800121e <main+0x92>
 800120a:	e8df f000 	tbb	[pc, r0]
 800120e:	4419      	.short	0x4419
 8001210:	040f4908 	.word	0x040f4908
 8001214:	1e          	.byte	0x1e
 8001215:	00          	.byte	0x00
 8001216:	f04f 0800 	mov.w	r8, #0
 800121a:	4646      	mov	r6, r8
 800121c:	2701      	movs	r7, #1
 800121e:	f10a 0a01 	add.w	sl, sl, #1
 8001222:	45aa      	cmp	sl, r5
 8001224:	dbe8      	blt.n	80011f8 <main+0x6c>
 8001226:	2302      	movs	r3, #2
 8001228:	6023      	str	r3, [r4, #0]
 800122a:	e7d6      	b.n	80011da <main+0x4e>
 800122c:	2e00      	cmp	r6, #0
 800122e:	d0f6      	beq.n	800121e <main+0x92>
 8001230:	f1b8 0f00 	cmp.w	r8, #0
 8001234:	d0f3      	beq.n	800121e <main+0x92>
 8001236:	f10a 0a03 	add.w	sl, sl, #3
 800123a:	4646      	mov	r6, r8
 800123c:	2703      	movs	r7, #3
 800123e:	e7ee      	b.n	800121e <main+0x92>
 8001240:	2e00      	cmp	r6, #0
 8001242:	d1ec      	bne.n	800121e <main+0x92>
 8001244:	4637      	mov	r7, r6
 8001246:	2601      	movs	r6, #1
 8001248:	e7e9      	b.n	800121e <main+0x92>
 800124a:	4658      	mov	r0, fp
 800124c:	f001 fd6a 	bl	8002d24 <HAL_SPI_Abort_IT>
 8001250:	2f01      	cmp	r7, #1
 8001252:	d040      	beq.n	80012d6 <main+0x14a>
 8001254:	2f00      	cmp	r7, #0
 8001256:	d036      	beq.n	80012c6 <main+0x13a>
 8001258:	2f02      	cmp	r7, #2
 800125a:	d03e      	beq.n	80012da <main+0x14e>
 800125c:	2f03      	cmp	r7, #3
 800125e:	d03e      	beq.n	80012de <main+0x152>
 8001260:	2201      	movs	r2, #1
 8001262:	f44f 7100 	mov.w	r1, #512	; 0x200
 8001266:	4822      	ldr	r0, [pc, #136]	; (80012f0 <main+0x164>)
 8001268:	f000 fd1e 	bl	8001ca8 <HAL_GPIO_WritePin>
 800126c:	2200      	movs	r2, #0
 800126e:	f44f 7100 	mov.w	r1, #512	; 0x200
 8001272:	481f      	ldr	r0, [pc, #124]	; (80012f0 <main+0x164>)
 8001274:	f000 fd18 	bl	8001ca8 <HAL_GPIO_WritePin>
 8001278:	4b1b      	ldr	r3, [pc, #108]	; (80012e8 <main+0x15c>)
 800127a:	491a      	ldr	r1, [pc, #104]	; (80012e4 <main+0x158>)
 800127c:	681b      	ldr	r3, [r3, #0]
 800127e:	2200      	movs	r2, #0
 8001280:	9201      	str	r2, [sp, #4]
 8001282:	68da      	ldr	r2, [r3, #12]
 8001284:	9201      	str	r2, [sp, #4]
 8001286:	689b      	ldr	r3, [r3, #8]
 8001288:	9301      	str	r3, [sp, #4]
 800128a:	2201      	movs	r2, #1
 800128c:	4658      	mov	r0, fp
 800128e:	9b01      	ldr	r3, [sp, #4]
 8001290:	f001 f888 	bl	80023a4 <HAL_SPI_Receive_IT>
 8001294:	e7c3      	b.n	800121e <main+0x92>
 8001296:	2e00      	cmp	r6, #0
 8001298:	d0c1      	beq.n	800121e <main+0x92>
 800129a:	2701      	movs	r7, #1
 800129c:	2600      	movs	r6, #0
 800129e:	e7be      	b.n	800121e <main+0x92>
 80012a0:	2e00      	cmp	r6, #0
 80012a2:	bf1c      	itt	ne
 80012a4:	46b0      	movne	r8, r6
 80012a6:	2702      	movne	r7, #2
 80012a8:	e7b9      	b.n	800121e <main+0x92>
 80012aa:	f8d9 2000 	ldr.w	r2, [r9]
 80012ae:	4811      	ldr	r0, [pc, #68]	; (80012f4 <main+0x168>)
 80012b0:	a902      	add	r1, sp, #8
 80012b2:	f7ff fdb1 	bl	8000e18 <identificador>
 80012b6:	f8c4 a000 	str.w	sl, [r4]
 80012ba:	f8c9 5000 	str.w	r5, [r9]
 80012be:	6823      	ldr	r3, [r4, #0]
 80012c0:	2b01      	cmp	r3, #1
 80012c2:	d18e      	bne.n	80011e2 <main+0x56>
 80012c4:	e793      	b.n	80011ee <main+0x62>
 80012c6:	2341      	movs	r3, #65	; 0x41
 80012c8:	490b      	ldr	r1, [pc, #44]	; (80012f8 <main+0x16c>)
 80012ca:	2201      	movs	r2, #1
 80012cc:	4658      	mov	r0, fp
 80012ce:	700b      	strb	r3, [r1, #0]
 80012d0:	f001 f81a 	bl	8002308 <HAL_SPI_Transmit_IT>
 80012d4:	e7c4      	b.n	8001260 <main+0xd4>
 80012d6:	2344      	movs	r3, #68	; 0x44
 80012d8:	e7f6      	b.n	80012c8 <main+0x13c>
 80012da:	2348      	movs	r3, #72	; 0x48
 80012dc:	e7f4      	b.n	80012c8 <main+0x13c>
 80012de:	234e      	movs	r3, #78	; 0x4e
 80012e0:	e7f2      	b.n	80012c8 <main+0x13c>
 80012e2:	bf00      	nop
 80012e4:	20000248 	.word	0x20000248
 80012e8:	2000ecc8 	.word	0x2000ecc8
 80012ec:	20000000 	.word	0x20000000
 80012f0:	40020800 	.word	0x40020800
 80012f4:	20000208 	.word	0x20000208
 80012f8:	20000204 	.word	0x20000204
 80012fc:	20000200 	.word	0x20000200

08001300 <HAL_SPI_RxCpltCallback>:
 8001300:	4b0f      	ldr	r3, [pc, #60]	; (8001340 <HAL_SPI_RxCpltCallback+0x40>)
 8001302:	4a10      	ldr	r2, [pc, #64]	; (8001344 <HAL_SPI_RxCpltCallback+0x44>)
 8001304:	6819      	ldr	r1, [r3, #0]
 8001306:	4810      	ldr	r0, [pc, #64]	; (8001348 <HAL_SPI_RxCpltCallback+0x48>)
 8001308:	b410      	push	{r4}
 800130a:	3101      	adds	r1, #1
 800130c:	6019      	str	r1, [r3, #0]
 800130e:	6819      	ldr	r1, [r3, #0]
 8001310:	681c      	ldr	r4, [r3, #0]
 8001312:	7800      	ldrb	r0, [r0, #0]
 8001314:	4411      	add	r1, r2
 8001316:	4422      	add	r2, r4
 8001318:	f801 0c01 	strb.w	r0, [r1, #-1]
 800131c:	f812 2c01 	ldrb.w	r2, [r2, #-1]
 8001320:	2a3a      	cmp	r2, #58	; 0x3a
 8001322:	d106      	bne.n	8001332 <HAL_SPI_RxCpltCallback+0x32>
 8001324:	4809      	ldr	r0, [pc, #36]	; (800134c <HAL_SPI_RxCpltCallback+0x4c>)
 8001326:	490a      	ldr	r1, [pc, #40]	; (8001350 <HAL_SPI_RxCpltCallback+0x50>)
 8001328:	2200      	movs	r2, #0
 800132a:	6002      	str	r2, [r0, #0]
 800132c:	6818      	ldr	r0, [r3, #0]
 800132e:	6008      	str	r0, [r1, #0]
 8001330:	601a      	str	r2, [r3, #0]
 8001332:	2201      	movs	r2, #1
 8001334:	4904      	ldr	r1, [pc, #16]	; (8001348 <HAL_SPI_RxCpltCallback+0x48>)
 8001336:	4807      	ldr	r0, [pc, #28]	; (8001354 <HAL_SPI_RxCpltCallback+0x54>)
 8001338:	f85d 4b04 	ldr.w	r4, [sp], #4
 800133c:	f001 b832 	b.w	80023a4 <HAL_SPI_Receive_IT>
 8001340:	200001fc 	.word	0x200001fc
 8001344:	20000208 	.word	0x20000208
 8001348:	20000248 	.word	0x20000248
 800134c:	20000000 	.word	0x20000000
 8001350:	20000200 	.word	0x20000200
 8001354:	2000ecc8 	.word	0x2000ecc8

08001358 <Error_Handler>:
 8001358:	4770      	bx	lr
 800135a:	bf00      	nop

0800135c <MX_SPI2_Init>:
 800135c:	b508      	push	{r3, lr}
 800135e:	4b0c      	ldr	r3, [pc, #48]	; (8001390 <MX_SPI2_Init+0x34>)
 8001360:	4a0c      	ldr	r2, [pc, #48]	; (8001394 <MX_SPI2_Init+0x38>)
 8001362:	601a      	str	r2, [r3, #0]
 8001364:	210a      	movs	r1, #10
 8001366:	2200      	movs	r2, #0
 8001368:	4618      	mov	r0, r3
 800136a:	62d9      	str	r1, [r3, #44]	; 0x2c
 800136c:	e9c3 2201 	strd	r2, r2, [r3, #4]
 8001370:	e9c3 2203 	strd	r2, r2, [r3, #12]
 8001374:	e9c3 2205 	strd	r2, r2, [r3, #20]
 8001378:	e9c3 2208 	strd	r2, r2, [r3, #32]
 800137c:	629a      	str	r2, [r3, #40]	; 0x28
 800137e:	f000 ff83 	bl	8002288 <HAL_SPI_Init>
 8001382:	b900      	cbnz	r0, 8001386 <MX_SPI2_Init+0x2a>
 8001384:	bd08      	pop	{r3, pc}
 8001386:	e8bd 4008 	ldmia.w	sp!, {r3, lr}
 800138a:	f7ff bfe5 	b.w	8001358 <Error_Handler>
 800138e:	bf00      	nop
 8001390:	2000ecc8 	.word	0x2000ecc8
 8001394:	40003800 	.word	0x40003800

08001398 <HAL_SPI_MspInit>:
 8001398:	b5f0      	push	{r4, r5, r6, r7, lr}
 800139a:	6802      	ldr	r2, [r0, #0]
 800139c:	4b26      	ldr	r3, [pc, #152]	; (8001438 <HAL_SPI_MspInit+0xa0>)
 800139e:	b089      	sub	sp, #36	; 0x24
 80013a0:	2400      	movs	r4, #0
 80013a2:	429a      	cmp	r2, r3
 80013a4:	e9cd 4403 	strd	r4, r4, [sp, #12]
 80013a8:	e9cd 4405 	strd	r4, r4, [sp, #20]
 80013ac:	9407      	str	r4, [sp, #28]
 80013ae:	d001      	beq.n	80013b4 <HAL_SPI_MspInit+0x1c>
 80013b0:	b009      	add	sp, #36	; 0x24
 80013b2:	bdf0      	pop	{r4, r5, r6, r7, pc}
 80013b4:	f503 3300 	add.w	r3, r3, #131072	; 0x20000
 80013b8:	9400      	str	r4, [sp, #0]
 80013ba:	6c1a      	ldr	r2, [r3, #64]	; 0x40
 80013bc:	481f      	ldr	r0, [pc, #124]	; (800143c <HAL_SPI_MspInit+0xa4>)
 80013be:	f442 4280 	orr.w	r2, r2, #16384	; 0x4000
 80013c2:	641a      	str	r2, [r3, #64]	; 0x40
 80013c4:	6c1a      	ldr	r2, [r3, #64]	; 0x40
 80013c6:	f402 4280 	and.w	r2, r2, #16384	; 0x4000
 80013ca:	9200      	str	r2, [sp, #0]
 80013cc:	9a00      	ldr	r2, [sp, #0]
 80013ce:	9401      	str	r4, [sp, #4]
 80013d0:	6b1a      	ldr	r2, [r3, #48]	; 0x30
 80013d2:	f042 0204 	orr.w	r2, r2, #4
 80013d6:	631a      	str	r2, [r3, #48]	; 0x30
 80013d8:	6b1a      	ldr	r2, [r3, #48]	; 0x30
 80013da:	f002 0204 	and.w	r2, r2, #4
 80013de:	9201      	str	r2, [sp, #4]
 80013e0:	9a01      	ldr	r2, [sp, #4]
 80013e2:	9402      	str	r4, [sp, #8]
 80013e4:	6b1a      	ldr	r2, [r3, #48]	; 0x30
 80013e6:	f042 0202 	orr.w	r2, r2, #2
 80013ea:	631a      	str	r2, [r3, #48]	; 0x30
 80013ec:	6b1b      	ldr	r3, [r3, #48]	; 0x30
 80013ee:	f003 0302 	and.w	r3, r3, #2
 80013f2:	9302      	str	r3, [sp, #8]
 80013f4:	230c      	movs	r3, #12
 80013f6:	eb0d 0103 	add.w	r1, sp, r3
 80013fa:	2702      	movs	r7, #2
 80013fc:	2603      	movs	r6, #3
 80013fe:	2505      	movs	r5, #5
 8001400:	9a02      	ldr	r2, [sp, #8]
 8001402:	e9cd 3703 	strd	r3, r7, [sp, #12]
 8001406:	e9cd 6506 	strd	r6, r5, [sp, #24]
 800140a:	f000 fb49 	bl	8001aa0 <HAL_GPIO_Init>
 800140e:	f44f 53a0 	mov.w	r3, #5120	; 0x1400
 8001412:	a903      	add	r1, sp, #12
 8001414:	480a      	ldr	r0, [pc, #40]	; (8001440 <HAL_SPI_MspInit+0xa8>)
 8001416:	9303      	str	r3, [sp, #12]
 8001418:	9704      	str	r7, [sp, #16]
 800141a:	e9cd 6506 	strd	r6, r5, [sp, #24]
 800141e:	9405      	str	r4, [sp, #20]
 8001420:	f000 fb3e 	bl	8001aa0 <HAL_GPIO_Init>
 8001424:	4622      	mov	r2, r4
 8001426:	4621      	mov	r1, r4
 8001428:	2024      	movs	r0, #36	; 0x24
 800142a:	f000 fac9 	bl	80019c0 <HAL_NVIC_SetPriority>
 800142e:	2024      	movs	r0, #36	; 0x24
 8001430:	f000 fafc 	bl	8001a2c <HAL_NVIC_EnableIRQ>
 8001434:	b009      	add	sp, #36	; 0x24
 8001436:	bdf0      	pop	{r4, r5, r6, r7, pc}
 8001438:	40003800 	.word	0x40003800
 800143c:	40020800 	.word	0x40020800
 8001440:	40020400 	.word	0x40020400

08001444 <HAL_MspInit>:
 8001444:	b082      	sub	sp, #8
 8001446:	4b0c      	ldr	r3, [pc, #48]	; (8001478 <HAL_MspInit+0x34>)
 8001448:	2100      	movs	r1, #0
 800144a:	9100      	str	r1, [sp, #0]
 800144c:	6c5a      	ldr	r2, [r3, #68]	; 0x44
 800144e:	f442 4280 	orr.w	r2, r2, #16384	; 0x4000
 8001452:	645a      	str	r2, [r3, #68]	; 0x44
 8001454:	6c5a      	ldr	r2, [r3, #68]	; 0x44
 8001456:	f402 4280 	and.w	r2, r2, #16384	; 0x4000
 800145a:	9200      	str	r2, [sp, #0]
 800145c:	9a00      	ldr	r2, [sp, #0]
 800145e:	9101      	str	r1, [sp, #4]
 8001460:	6c1a      	ldr	r2, [r3, #64]	; 0x40
 8001462:	f042 5280 	orr.w	r2, r2, #268435456	; 0x10000000
 8001466:	641a      	str	r2, [r3, #64]	; 0x40
 8001468:	6c1b      	ldr	r3, [r3, #64]	; 0x40
 800146a:	f003 5380 	and.w	r3, r3, #268435456	; 0x10000000
 800146e:	9301      	str	r3, [sp, #4]
 8001470:	9b01      	ldr	r3, [sp, #4]
 8001472:	b002      	add	sp, #8
 8001474:	4770      	bx	lr
 8001476:	bf00      	nop
 8001478:	40023800 	.word	0x40023800

0800147c <NMI_Handler>:
 800147c:	4770      	bx	lr
 800147e:	bf00      	nop

08001480 <HardFault_Handler>:
 8001480:	e7fe      	b.n	8001480 <HardFault_Handler>
 8001482:	bf00      	nop

08001484 <MemManage_Handler>:
 8001484:	e7fe      	b.n	8001484 <MemManage_Handler>
 8001486:	bf00      	nop

08001488 <BusFault_Handler>:
 8001488:	e7fe      	b.n	8001488 <BusFault_Handler>
 800148a:	bf00      	nop

0800148c <UsageFault_Handler>:
 800148c:	e7fe      	b.n	800148c <UsageFault_Handler>
 800148e:	bf00      	nop

08001490 <SVC_Handler>:
 8001490:	4770      	bx	lr
 8001492:	bf00      	nop

08001494 <DebugMon_Handler>:
 8001494:	4770      	bx	lr
 8001496:	bf00      	nop

08001498 <PendSV_Handler>:
 8001498:	4770      	bx	lr
 800149a:	bf00      	nop

0800149c <SysTick_Handler>:
 800149c:	f000 ba6c 	b.w	8001978 <HAL_IncTick>

080014a0 <TIM1_CC_IRQHandler>:
 80014a0:	4801      	ldr	r0, [pc, #4]	; (80014a8 <TIM1_CC_IRQHandler+0x8>)
 80014a2:	f002 ba9f 	b.w	80039e4 <HAL_TIM_IRQHandler>
 80014a6:	bf00      	nop
 80014a8:	2000ed60 	.word	0x2000ed60

080014ac <TIM3_IRQHandler>:
 80014ac:	4801      	ldr	r0, [pc, #4]	; (80014b4 <TIM3_IRQHandler+0x8>)
 80014ae:	f002 ba99 	b.w	80039e4 <HAL_TIM_IRQHandler>
 80014b2:	bf00      	nop
 80014b4:	2000ed20 	.word	0x2000ed20

080014b8 <SPI2_IRQHandler>:
 80014b8:	4801      	ldr	r0, [pc, #4]	; (80014c0 <SPI2_IRQHandler+0x8>)
 80014ba:	f001 ba51 	b.w	8002960 <HAL_SPI_IRQHandler>
 80014be:	bf00      	nop
 80014c0:	2000ecc8 	.word	0x2000ecc8

080014c4 <_sbrk>:
 80014c4:	4a0c      	ldr	r2, [pc, #48]	; (80014f8 <_sbrk+0x34>)
 80014c6:	b508      	push	{r3, lr}
 80014c8:	6813      	ldr	r3, [r2, #0]
 80014ca:	b133      	cbz	r3, 80014da <_sbrk+0x16>
 80014cc:	4418      	add	r0, r3
 80014ce:	4669      	mov	r1, sp
 80014d0:	4288      	cmp	r0, r1
 80014d2:	d808      	bhi.n	80014e6 <_sbrk+0x22>
 80014d4:	6010      	str	r0, [r2, #0]
 80014d6:	4618      	mov	r0, r3
 80014d8:	bd08      	pop	{r3, pc}
 80014da:	4b08      	ldr	r3, [pc, #32]	; (80014fc <_sbrk+0x38>)
 80014dc:	6013      	str	r3, [r2, #0]
 80014de:	4418      	add	r0, r3
 80014e0:	4669      	mov	r1, sp
 80014e2:	4288      	cmp	r0, r1
 80014e4:	d9f6      	bls.n	80014d4 <_sbrk+0x10>
 80014e6:	f002 fb71 	bl	8003bcc <__errno>
 80014ea:	230c      	movs	r3, #12
 80014ec:	6003      	str	r3, [r0, #0]
 80014ee:	f04f 33ff 	mov.w	r3, #4294967295
 80014f2:	4618      	mov	r0, r3
 80014f4:	bd08      	pop	{r3, pc}
 80014f6:	bf00      	nop
 80014f8:	2000023c 	.word	0x2000023c
 80014fc:	2000ee28 	.word	0x2000ee28

08001500 <SystemInit>:
 8001500:	4b05      	ldr	r3, [pc, #20]	; (8001518 <SystemInit+0x18>)
 8001502:	f8d3 2088 	ldr.w	r2, [r3, #136]	; 0x88
 8001506:	f04f 6100 	mov.w	r1, #134217728	; 0x8000000
 800150a:	f442 0270 	orr.w	r2, r2, #15728640	; 0xf00000
 800150e:	f8c3 2088 	str.w	r2, [r3, #136]	; 0x88
 8001512:	6099      	str	r1, [r3, #8]
 8001514:	4770      	bx	lr
 8001516:	bf00      	nop
 8001518:	e000ed00 	.word	0xe000ed00

0800151c <MX_TIM1_Init>:
 800151c:	b530      	push	{r4, r5, lr}
 800151e:	b08d      	sub	sp, #52	; 0x34
 8001520:	2220      	movs	r2, #32
 8001522:	2100      	movs	r1, #0
 8001524:	a804      	add	r0, sp, #16
 8001526:	f002 fb7b 	bl	8003c20 <memset>
 800152a:	4b14      	ldr	r3, [pc, #80]	; (800157c <MX_TIM1_Init+0x60>)
 800152c:	4a14      	ldr	r2, [pc, #80]	; (8001580 <MX_TIM1_Init+0x64>)
 800152e:	601a      	str	r2, [r3, #0]
 8001530:	2180      	movs	r1, #128	; 0x80
 8001532:	2200      	movs	r2, #0
 8001534:	2401      	movs	r4, #1
 8001536:	2504      	movs	r5, #4
 8001538:	6199      	str	r1, [r3, #24]
 800153a:	4618      	mov	r0, r3
 800153c:	a903      	add	r1, sp, #12
 800153e:	605a      	str	r2, [r3, #4]
 8001540:	9201      	str	r2, [sp, #4]
 8001542:	e9c3 2202 	strd	r2, r2, [r3, #8]
 8001546:	e9c3 2204 	strd	r2, r2, [r3, #16]
 800154a:	e9cd 2402 	strd	r2, r4, [sp, #8]
 800154e:	9405      	str	r4, [sp, #20]
 8001550:	9409      	str	r4, [sp, #36]	; 0x24
 8001552:	9506      	str	r5, [sp, #24]
 8001554:	950a      	str	r5, [sp, #40]	; 0x28
 8001556:	f001 fef3 	bl	8003340 <HAL_TIM_Encoder_Init>
 800155a:	b960      	cbnz	r0, 8001576 <MX_TIM1_Init+0x5a>
 800155c:	2240      	movs	r2, #64	; 0x40
 800155e:	2380      	movs	r3, #128	; 0x80
 8001560:	a901      	add	r1, sp, #4
 8001562:	4806      	ldr	r0, [pc, #24]	; (800157c <MX_TIM1_Init+0x60>)
 8001564:	e9cd 2301 	strd	r2, r3, [sp, #4]
 8001568:	f002 fae6 	bl	8003b38 <HAL_TIMEx_MasterConfigSynchronization>
 800156c:	b108      	cbz	r0, 8001572 <MX_TIM1_Init+0x56>
 800156e:	f7ff fef3 	bl	8001358 <Error_Handler>
 8001572:	b00d      	add	sp, #52	; 0x34
 8001574:	bd30      	pop	{r4, r5, pc}
 8001576:	f7ff feef 	bl	8001358 <Error_Handler>
 800157a:	e7ef      	b.n	800155c <MX_TIM1_Init+0x40>
 800157c:	2000ed60 	.word	0x2000ed60
 8001580:	40010000 	.word	0x40010000

08001584 <MX_TIM3_Init>:
 8001584:	b530      	push	{r4, r5, lr}
 8001586:	b08d      	sub	sp, #52	; 0x34
 8001588:	2220      	movs	r2, #32
 800158a:	2100      	movs	r1, #0
 800158c:	a804      	add	r0, sp, #16
 800158e:	f002 fb47 	bl	8003c20 <memset>
 8001592:	4b14      	ldr	r3, [pc, #80]	; (80015e4 <MX_TIM3_Init+0x60>)
 8001594:	4a14      	ldr	r2, [pc, #80]	; (80015e8 <MX_TIM3_Init+0x64>)
 8001596:	601a      	str	r2, [r3, #0]
 8001598:	2180      	movs	r1, #128	; 0x80
 800159a:	2200      	movs	r2, #0
 800159c:	2401      	movs	r4, #1
 800159e:	2504      	movs	r5, #4
 80015a0:	6199      	str	r1, [r3, #24]
 80015a2:	4618      	mov	r0, r3
 80015a4:	a903      	add	r1, sp, #12
 80015a6:	605a      	str	r2, [r3, #4]
 80015a8:	9201      	str	r2, [sp, #4]
 80015aa:	e9c3 2202 	strd	r2, r2, [r3, #8]
 80015ae:	611a      	str	r2, [r3, #16]
 80015b0:	e9cd 2402 	strd	r2, r4, [sp, #8]
 80015b4:	9405      	str	r4, [sp, #20]
 80015b6:	9409      	str	r4, [sp, #36]	; 0x24
 80015b8:	9506      	str	r5, [sp, #24]
 80015ba:	950a      	str	r5, [sp, #40]	; 0x28
 80015bc:	f001 fec0 	bl	8003340 <HAL_TIM_Encoder_Init>
 80015c0:	b960      	cbnz	r0, 80015dc <MX_TIM3_Init+0x58>
 80015c2:	2250      	movs	r2, #80	; 0x50
 80015c4:	2380      	movs	r3, #128	; 0x80
 80015c6:	a901      	add	r1, sp, #4
 80015c8:	4806      	ldr	r0, [pc, #24]	; (80015e4 <MX_TIM3_Init+0x60>)
 80015ca:	e9cd 2301 	strd	r2, r3, [sp, #4]
 80015ce:	f002 fab3 	bl	8003b38 <HAL_TIMEx_MasterConfigSynchronization>
 80015d2:	b108      	cbz	r0, 80015d8 <MX_TIM3_Init+0x54>
 80015d4:	f7ff fec0 	bl	8001358 <Error_Handler>
 80015d8:	b00d      	add	sp, #52	; 0x34
 80015da:	bd30      	pop	{r4, r5, pc}
 80015dc:	f7ff febc 	bl	8001358 <Error_Handler>
 80015e0:	e7ef      	b.n	80015c2 <MX_TIM3_Init+0x3e>
 80015e2:	bf00      	nop
 80015e4:	2000ed20 	.word	0x2000ed20
 80015e8:	40000400 	.word	0x40000400

080015ec <MX_TIM9_Init>:
 80015ec:	b500      	push	{lr}
 80015ee:	4a20      	ldr	r2, [pc, #128]	; (8001670 <MX_TIM9_Init+0x84>)
 80015f0:	4b20      	ldr	r3, [pc, #128]	; (8001674 <MX_TIM9_Init+0x88>)
 80015f2:	6013      	str	r3, [r2, #0]
 80015f4:	b08d      	sub	sp, #52	; 0x34
 80015f6:	2301      	movs	r3, #1
 80015f8:	f241 0167 	movw	r1, #4199	; 0x1067
 80015fc:	6053      	str	r3, [r2, #4]
 80015fe:	4610      	mov	r0, r2
 8001600:	2300      	movs	r3, #0
 8001602:	e9c2 3102 	strd	r3, r1, [r2, #8]
 8001606:	9301      	str	r3, [sp, #4]
 8001608:	9305      	str	r3, [sp, #20]
 800160a:	6113      	str	r3, [r2, #16]
 800160c:	6193      	str	r3, [r2, #24]
 800160e:	e9cd 3302 	strd	r3, r3, [sp, #8]
 8001612:	9304      	str	r3, [sp, #16]
 8001614:	e9cd 3306 	strd	r3, r3, [sp, #24]
 8001618:	e9cd 3308 	strd	r3, r3, [sp, #32]
 800161c:	e9cd 330a 	strd	r3, r3, [sp, #40]	; 0x28
 8001620:	f001 fcfe 	bl	8003020 <HAL_TIM_Base_Init>
 8001624:	bb08      	cbnz	r0, 800166a <MX_TIM9_Init+0x7e>
 8001626:	f44f 5380 	mov.w	r3, #4096	; 0x1000
 800162a:	a901      	add	r1, sp, #4
 800162c:	4810      	ldr	r0, [pc, #64]	; (8001670 <MX_TIM9_Init+0x84>)
 800162e:	9301      	str	r3, [sp, #4]
 8001630:	f002 f928 	bl	8003884 <HAL_TIM_ConfigClockSource>
 8001634:	b9b0      	cbnz	r0, 8001664 <MX_TIM9_Init+0x78>
 8001636:	480e      	ldr	r0, [pc, #56]	; (8001670 <MX_TIM9_Init+0x84>)
 8001638:	f001 fd78 	bl	800312c <HAL_TIM_OC_Init>
 800163c:	b978      	cbnz	r0, 800165e <MX_TIM9_Init+0x72>
 800163e:	2300      	movs	r3, #0
 8001640:	a905      	add	r1, sp, #20
 8001642:	461a      	mov	r2, r3
 8001644:	480a      	ldr	r0, [pc, #40]	; (8001670 <MX_TIM9_Init+0x84>)
 8001646:	9307      	str	r3, [sp, #28]
 8001648:	e9cd 3305 	strd	r3, r3, [sp, #20]
 800164c:	9309      	str	r3, [sp, #36]	; 0x24
 800164e:	f001 ff37 	bl	80034c0 <HAL_TIM_OC_ConfigChannel>
 8001652:	b108      	cbz	r0, 8001658 <MX_TIM9_Init+0x6c>
 8001654:	f7ff fe80 	bl	8001358 <Error_Handler>
 8001658:	b00d      	add	sp, #52	; 0x34
 800165a:	f85d fb04 	ldr.w	pc, [sp], #4
 800165e:	f7ff fe7b 	bl	8001358 <Error_Handler>
 8001662:	e7ec      	b.n	800163e <MX_TIM9_Init+0x52>
 8001664:	f7ff fe78 	bl	8001358 <Error_Handler>
 8001668:	e7e5      	b.n	8001636 <MX_TIM9_Init+0x4a>
 800166a:	f7ff fe75 	bl	8001358 <Error_Handler>
 800166e:	e7da      	b.n	8001626 <MX_TIM9_Init+0x3a>
 8001670:	2000eda0 	.word	0x2000eda0
 8001674:	40014000 	.word	0x40014000

08001678 <MX_TIM12_Init>:
 8001678:	b530      	push	{r4, r5, lr}
 800167a:	4c39      	ldr	r4, [pc, #228]	; (8001760 <MX_TIM12_Init+0xe8>)
 800167c:	4b39      	ldr	r3, [pc, #228]	; (8001764 <MX_TIM12_Init+0xec>)
 800167e:	6023      	str	r3, [r4, #0]
 8001680:	b093      	sub	sp, #76	; 0x4c
 8001682:	2301      	movs	r3, #1
 8001684:	f640 22ef 	movw	r2, #2799	; 0xaef
 8001688:	6063      	str	r3, [r4, #4]
 800168a:	4620      	mov	r0, r4
 800168c:	2300      	movs	r3, #0
 800168e:	e9c4 3202 	strd	r3, r2, [r4, #8]
 8001692:	9302      	str	r3, [sp, #8]
 8001694:	930b      	str	r3, [sp, #44]	; 0x2c
 8001696:	6123      	str	r3, [r4, #16]
 8001698:	61a3      	str	r3, [r4, #24]
 800169a:	e9cd 3303 	strd	r3, r3, [sp, #12]
 800169e:	9305      	str	r3, [sp, #20]
 80016a0:	e9cd 330c 	strd	r3, r3, [sp, #48]	; 0x30
 80016a4:	e9cd 330e 	strd	r3, r3, [sp, #56]	; 0x38
 80016a8:	e9cd 3310 	strd	r3, r3, [sp, #64]	; 0x40
 80016ac:	f001 fcb8 	bl	8003020 <HAL_TIM_Base_Init>
 80016b0:	2800      	cmp	r0, #0
 80016b2:	d138      	bne.n	8001726 <MX_TIM12_Init+0xae>
 80016b4:	f44f 5380 	mov.w	r3, #4096	; 0x1000
 80016b8:	a902      	add	r1, sp, #8
 80016ba:	4829      	ldr	r0, [pc, #164]	; (8001760 <MX_TIM12_Init+0xe8>)
 80016bc:	9302      	str	r3, [sp, #8]
 80016be:	f002 f8e1 	bl	8003884 <HAL_TIM_ConfigClockSource>
 80016c2:	bb30      	cbnz	r0, 8001712 <MX_TIM12_Init+0x9a>
 80016c4:	4826      	ldr	r0, [pc, #152]	; (8001760 <MX_TIM12_Init+0xe8>)
 80016c6:	f001 fdb7 	bl	8003238 <HAL_TIM_PWM_Init>
 80016ca:	bb48      	cbnz	r0, 8001720 <MX_TIM12_Init+0xa8>
 80016cc:	2300      	movs	r3, #0
 80016ce:	2560      	movs	r5, #96	; 0x60
 80016d0:	461a      	mov	r2, r3
 80016d2:	a90b      	add	r1, sp, #44	; 0x2c
 80016d4:	4822      	ldr	r0, [pc, #136]	; (8001760 <MX_TIM12_Init+0xe8>)
 80016d6:	930f      	str	r3, [sp, #60]	; 0x3c
 80016d8:	e9cd 330c 	strd	r3, r3, [sp, #48]	; 0x30
 80016dc:	950b      	str	r5, [sp, #44]	; 0x2c
 80016de:	f001 ffc7 	bl	8003670 <HAL_TIM_PWM_ConfigChannel>
 80016e2:	b998      	cbnz	r0, 800170c <MX_TIM12_Init+0x94>
 80016e4:	a90b      	add	r1, sp, #44	; 0x2c
 80016e6:	2204      	movs	r2, #4
 80016e8:	481d      	ldr	r0, [pc, #116]	; (8001760 <MX_TIM12_Init+0xe8>)
 80016ea:	f001 ffc1 	bl	8003670 <HAL_TIM_PWM_ConfigChannel>
 80016ee:	b108      	cbz	r0, 80016f4 <MX_TIM12_Init+0x7c>
 80016f0:	f7ff fe32 	bl	8001358 <Error_Handler>
 80016f4:	6821      	ldr	r1, [r4, #0]
 80016f6:	4a1b      	ldr	r2, [pc, #108]	; (8001764 <MX_TIM12_Init+0xec>)
 80016f8:	2300      	movs	r3, #0
 80016fa:	4291      	cmp	r1, r2
 80016fc:	e9cd 3306 	strd	r3, r3, [sp, #24]
 8001700:	e9cd 3308 	strd	r3, r3, [sp, #32]
 8001704:	930a      	str	r3, [sp, #40]	; 0x28
 8001706:	d011      	beq.n	800172c <MX_TIM12_Init+0xb4>
 8001708:	b013      	add	sp, #76	; 0x4c
 800170a:	bd30      	pop	{r4, r5, pc}
 800170c:	f7ff fe24 	bl	8001358 <Error_Handler>
 8001710:	e7e8      	b.n	80016e4 <MX_TIM12_Init+0x6c>
 8001712:	f7ff fe21 	bl	8001358 <Error_Handler>
 8001716:	4812      	ldr	r0, [pc, #72]	; (8001760 <MX_TIM12_Init+0xe8>)
 8001718:	f001 fd8e 	bl	8003238 <HAL_TIM_PWM_Init>
 800171c:	2800      	cmp	r0, #0
 800171e:	d0d5      	beq.n	80016cc <MX_TIM12_Init+0x54>
 8001720:	f7ff fe1a 	bl	8001358 <Error_Handler>
 8001724:	e7d2      	b.n	80016cc <MX_TIM12_Init+0x54>
 8001726:	f7ff fe17 	bl	8001358 <Error_Handler>
 800172a:	e7c3      	b.n	80016b4 <MX_TIM12_Init+0x3c>
 800172c:	f502 3208 	add.w	r2, r2, #139264	; 0x22000
 8001730:	9301      	str	r3, [sp, #4]
 8001732:	6b13      	ldr	r3, [r2, #48]	; 0x30
 8001734:	480c      	ldr	r0, [pc, #48]	; (8001768 <MX_TIM12_Init+0xf0>)
 8001736:	f043 0302 	orr.w	r3, r3, #2
 800173a:	6313      	str	r3, [r2, #48]	; 0x30
 800173c:	6b13      	ldr	r3, [r2, #48]	; 0x30
 800173e:	f003 0302 	and.w	r3, r3, #2
 8001742:	9301      	str	r3, [sp, #4]
 8001744:	2202      	movs	r2, #2
 8001746:	2309      	movs	r3, #9
 8001748:	a906      	add	r1, sp, #24
 800174a:	f44f 4440 	mov.w	r4, #49152	; 0xc000
 800174e:	9d01      	ldr	r5, [sp, #4]
 8001750:	930a      	str	r3, [sp, #40]	; 0x28
 8001752:	e9cd 4206 	strd	r4, r2, [sp, #24]
 8001756:	f000 f9a3 	bl	8001aa0 <HAL_GPIO_Init>
 800175a:	b013      	add	sp, #76	; 0x4c
 800175c:	bd30      	pop	{r4, r5, pc}
 800175e:	bf00      	nop
 8001760:	2000ede0 	.word	0x2000ede0
 8001764:	40001800 	.word	0x40001800
 8001768:	40020400 	.word	0x40020400

0800176c <HAL_TIM_Encoder_MspInit>:
 800176c:	b570      	push	{r4, r5, r6, lr}
 800176e:	6803      	ldr	r3, [r0, #0]
 8001770:	4a32      	ldr	r2, [pc, #200]	; (800183c <HAL_TIM_Encoder_MspInit+0xd0>)
 8001772:	b08a      	sub	sp, #40	; 0x28
 8001774:	2400      	movs	r4, #0
 8001776:	4293      	cmp	r3, r2
 8001778:	e9cd 4405 	strd	r4, r4, [sp, #20]
 800177c:	e9cd 4407 	strd	r4, r4, [sp, #28]
 8001780:	9409      	str	r4, [sp, #36]	; 0x24
 8001782:	d02f      	beq.n	80017e4 <HAL_TIM_Encoder_MspInit+0x78>
 8001784:	4a2e      	ldr	r2, [pc, #184]	; (8001840 <HAL_TIM_Encoder_MspInit+0xd4>)
 8001786:	4293      	cmp	r3, r2
 8001788:	d001      	beq.n	800178e <HAL_TIM_Encoder_MspInit+0x22>
 800178a:	b00a      	add	sp, #40	; 0x28
 800178c:	bd70      	pop	{r4, r5, r6, pc}
 800178e:	4b2d      	ldr	r3, [pc, #180]	; (8001844 <HAL_TIM_Encoder_MspInit+0xd8>)
 8001790:	9403      	str	r4, [sp, #12]
 8001792:	6c1a      	ldr	r2, [r3, #64]	; 0x40
 8001794:	482c      	ldr	r0, [pc, #176]	; (8001848 <HAL_TIM_Encoder_MspInit+0xdc>)
 8001796:	f042 0202 	orr.w	r2, r2, #2
 800179a:	641a      	str	r2, [r3, #64]	; 0x40
 800179c:	6c1a      	ldr	r2, [r3, #64]	; 0x40
 800179e:	f002 0202 	and.w	r2, r2, #2
 80017a2:	9203      	str	r2, [sp, #12]
 80017a4:	9a03      	ldr	r2, [sp, #12]
 80017a6:	9404      	str	r4, [sp, #16]
 80017a8:	6b1a      	ldr	r2, [r3, #48]	; 0x30
 80017aa:	f042 0204 	orr.w	r2, r2, #4
 80017ae:	631a      	str	r2, [r3, #48]	; 0x30
 80017b0:	6b1b      	ldr	r3, [r3, #48]	; 0x30
 80017b2:	f003 0304 	and.w	r3, r3, #4
 80017b6:	9304      	str	r3, [sp, #16]
 80017b8:	a905      	add	r1, sp, #20
 80017ba:	2302      	movs	r3, #2
 80017bc:	2201      	movs	r2, #1
 80017be:	25c0      	movs	r5, #192	; 0xc0
 80017c0:	e9cd 5305 	strd	r5, r3, [sp, #20]
 80017c4:	e9cd 3308 	strd	r3, r3, [sp, #32]
 80017c8:	9207      	str	r2, [sp, #28]
 80017ca:	9e04      	ldr	r6, [sp, #16]
 80017cc:	f000 f968 	bl	8001aa0 <HAL_GPIO_Init>
 80017d0:	4622      	mov	r2, r4
 80017d2:	4621      	mov	r1, r4
 80017d4:	201d      	movs	r0, #29
 80017d6:	f000 f8f3 	bl	80019c0 <HAL_NVIC_SetPriority>
 80017da:	201d      	movs	r0, #29
 80017dc:	f000 f926 	bl	8001a2c <HAL_NVIC_EnableIRQ>
 80017e0:	b00a      	add	sp, #40	; 0x28
 80017e2:	bd70      	pop	{r4, r5, r6, pc}
 80017e4:	4b17      	ldr	r3, [pc, #92]	; (8001844 <HAL_TIM_Encoder_MspInit+0xd8>)
 80017e6:	9401      	str	r4, [sp, #4]
 80017e8:	6c5a      	ldr	r2, [r3, #68]	; 0x44
 80017ea:	4818      	ldr	r0, [pc, #96]	; (800184c <HAL_TIM_Encoder_MspInit+0xe0>)
 80017ec:	f042 0201 	orr.w	r2, r2, #1
 80017f0:	645a      	str	r2, [r3, #68]	; 0x44
 80017f2:	6c5a      	ldr	r2, [r3, #68]	; 0x44
 80017f4:	f002 0201 	and.w	r2, r2, #1
 80017f8:	9201      	str	r2, [sp, #4]
 80017fa:	9a01      	ldr	r2, [sp, #4]
 80017fc:	9402      	str	r4, [sp, #8]
 80017fe:	6b1a      	ldr	r2, [r3, #48]	; 0x30
 8001800:	f042 0210 	orr.w	r2, r2, #16
 8001804:	631a      	str	r2, [r3, #48]	; 0x30
 8001806:	6b1b      	ldr	r3, [r3, #48]	; 0x30
 8001808:	f003 0310 	and.w	r3, r3, #16
 800180c:	9302      	str	r3, [sp, #8]
 800180e:	2202      	movs	r2, #2
 8001810:	2301      	movs	r3, #1
 8001812:	a905      	add	r1, sp, #20
 8001814:	f44f 6520 	mov.w	r5, #2560	; 0xa00
 8001818:	e9cd 3207 	strd	r3, r2, [sp, #28]
 800181c:	9309      	str	r3, [sp, #36]	; 0x24
 800181e:	e9cd 5205 	strd	r5, r2, [sp, #20]
 8001822:	9e02      	ldr	r6, [sp, #8]
 8001824:	f000 f93c 	bl	8001aa0 <HAL_GPIO_Init>
 8001828:	4622      	mov	r2, r4
 800182a:	4621      	mov	r1, r4
 800182c:	201b      	movs	r0, #27
 800182e:	f000 f8c7 	bl	80019c0 <HAL_NVIC_SetPriority>
 8001832:	201b      	movs	r0, #27
 8001834:	f000 f8fa 	bl	8001a2c <HAL_NVIC_EnableIRQ>
 8001838:	b00a      	add	sp, #40	; 0x28
 800183a:	bd70      	pop	{r4, r5, r6, pc}
 800183c:	40010000 	.word	0x40010000
 8001840:	40000400 	.word	0x40000400
 8001844:	40023800 	.word	0x40023800
 8001848:	40020800 	.word	0x40020800
 800184c:	40021000 	.word	0x40021000

08001850 <HAL_TIM_Base_MspInit>:
 8001850:	6803      	ldr	r3, [r0, #0]
 8001852:	4a12      	ldr	r2, [pc, #72]	; (800189c <HAL_TIM_Base_MspInit+0x4c>)
 8001854:	4293      	cmp	r3, r2
 8001856:	b082      	sub	sp, #8
 8001858:	d012      	beq.n	8001880 <HAL_TIM_Base_MspInit+0x30>
 800185a:	4a11      	ldr	r2, [pc, #68]	; (80018a0 <HAL_TIM_Base_MspInit+0x50>)
 800185c:	4293      	cmp	r3, r2
 800185e:	d001      	beq.n	8001864 <HAL_TIM_Base_MspInit+0x14>
 8001860:	b002      	add	sp, #8
 8001862:	4770      	bx	lr
 8001864:	4b0f      	ldr	r3, [pc, #60]	; (80018a4 <HAL_TIM_Base_MspInit+0x54>)
 8001866:	2200      	movs	r2, #0
 8001868:	9201      	str	r2, [sp, #4]
 800186a:	6c1a      	ldr	r2, [r3, #64]	; 0x40
 800186c:	f042 0240 	orr.w	r2, r2, #64	; 0x40
 8001870:	641a      	str	r2, [r3, #64]	; 0x40
 8001872:	6c1b      	ldr	r3, [r3, #64]	; 0x40
 8001874:	f003 0340 	and.w	r3, r3, #64	; 0x40
 8001878:	9301      	str	r3, [sp, #4]
 800187a:	9b01      	ldr	r3, [sp, #4]
 800187c:	b002      	add	sp, #8
 800187e:	4770      	bx	lr
 8001880:	4b08      	ldr	r3, [pc, #32]	; (80018a4 <HAL_TIM_Base_MspInit+0x54>)
 8001882:	2200      	movs	r2, #0
 8001884:	9200      	str	r2, [sp, #0]
 8001886:	6c5a      	ldr	r2, [r3, #68]	; 0x44
 8001888:	f442 3280 	orr.w	r2, r2, #65536	; 0x10000
 800188c:	645a      	str	r2, [r3, #68]	; 0x44
 800188e:	6c5b      	ldr	r3, [r3, #68]	; 0x44
 8001890:	f403 3380 	and.w	r3, r3, #65536	; 0x10000
 8001894:	9300      	str	r3, [sp, #0]
 8001896:	9b00      	ldr	r3, [sp, #0]
 8001898:	b002      	add	sp, #8
 800189a:	4770      	bx	lr
 800189c:	40014000 	.word	0x40014000
 80018a0:	40001800 	.word	0x40001800
 80018a4:	40023800 	.word	0x40023800

080018a8 <Reset_Handler>:
 80018a8:	f8df d034 	ldr.w	sp, [pc, #52]	; 80018e0 <LoopFillZerobss+0x14>
 80018ac:	2100      	movs	r1, #0
 80018ae:	e003      	b.n	80018b8 <LoopCopyDataInit>

080018b0 <CopyDataInit>:
 80018b0:	4b0c      	ldr	r3, [pc, #48]	; (80018e4 <LoopFillZerobss+0x18>)
 80018b2:	585b      	ldr	r3, [r3, r1]
 80018b4:	5043      	str	r3, [r0, r1]
 80018b6:	3104      	adds	r1, #4

080018b8 <LoopCopyDataInit>:
 80018b8:	480b      	ldr	r0, [pc, #44]	; (80018e8 <LoopFillZerobss+0x1c>)
 80018ba:	4b0c      	ldr	r3, [pc, #48]	; (80018ec <LoopFillZerobss+0x20>)
 80018bc:	1842      	adds	r2, r0, r1
 80018be:	429a      	cmp	r2, r3
 80018c0:	d3f6      	bcc.n	80018b0 <CopyDataInit>
 80018c2:	4a0b      	ldr	r2, [pc, #44]	; (80018f0 <LoopFillZerobss+0x24>)
 80018c4:	e002      	b.n	80018cc <LoopFillZerobss>

080018c6 <FillZerobss>:
 80018c6:	2300      	movs	r3, #0
 80018c8:	f842 3b04 	str.w	r3, [r2], #4

080018cc <LoopFillZerobss>:
 80018cc:	4b09      	ldr	r3, [pc, #36]	; (80018f4 <LoopFillZerobss+0x28>)
 80018ce:	429a      	cmp	r2, r3
 80018d0:	d3f9      	bcc.n	80018c6 <FillZerobss>
 80018d2:	f7ff fe15 	bl	8001500 <SystemInit>
 80018d6:	f002 f97f 	bl	8003bd8 <__libc_init_array>
 80018da:	f7ff fc57 	bl	800118c <main>
 80018de:	4770      	bx	lr
 80018e0:	20020000 	.word	0x20020000
 80018e4:	08005af0 	.word	0x08005af0
 80018e8:	20000000 	.word	0x20000000
 80018ec:	200001e0 	.word	0x200001e0
 80018f0:	200001e0 	.word	0x200001e0
 80018f4:	2000ee28 	.word	0x2000ee28

080018f8 <ADC_IRQHandler>:
 80018f8:	e7fe      	b.n	80018f8 <ADC_IRQHandler>
	...

080018fc <HAL_InitTick>:
 80018fc:	b538      	push	{r3, r4, r5, lr}
 80018fe:	4a0e      	ldr	r2, [pc, #56]	; (8001938 <HAL_InitTick+0x3c>)
 8001900:	4b0e      	ldr	r3, [pc, #56]	; (800193c <HAL_InitTick+0x40>)
 8001902:	7812      	ldrb	r2, [r2, #0]
 8001904:	681b      	ldr	r3, [r3, #0]
 8001906:	4605      	mov	r5, r0
 8001908:	f44f 707a 	mov.w	r0, #1000	; 0x3e8
 800190c:	fbb0 f0f2 	udiv	r0, r0, r2
 8001910:	fbb3 f0f0 	udiv	r0, r3, r0
 8001914:	f000 f898 	bl	8001a48 <HAL_SYSTICK_Config>
 8001918:	b908      	cbnz	r0, 800191e <HAL_InitTick+0x22>
 800191a:	2d0f      	cmp	r5, #15
 800191c:	d901      	bls.n	8001922 <HAL_InitTick+0x26>
 800191e:	2001      	movs	r0, #1
 8001920:	bd38      	pop	{r3, r4, r5, pc}
 8001922:	4604      	mov	r4, r0
 8001924:	4602      	mov	r2, r0
 8001926:	4629      	mov	r1, r5
 8001928:	f04f 30ff 	mov.w	r0, #4294967295
 800192c:	f000 f848 	bl	80019c0 <HAL_NVIC_SetPriority>
 8001930:	4b03      	ldr	r3, [pc, #12]	; (8001940 <HAL_InitTick+0x44>)
 8001932:	4620      	mov	r0, r4
 8001934:	601d      	str	r5, [r3, #0]
 8001936:	bd38      	pop	{r3, r4, r5, pc}
 8001938:	20000008 	.word	0x20000008
 800193c:	20000004 	.word	0x20000004
 8001940:	2000000c 	.word	0x2000000c

08001944 <HAL_Init>:
 8001944:	b508      	push	{r3, lr}
 8001946:	4b0b      	ldr	r3, [pc, #44]	; (8001974 <HAL_Init+0x30>)
 8001948:	681a      	ldr	r2, [r3, #0]
 800194a:	f442 7200 	orr.w	r2, r2, #512	; 0x200
 800194e:	601a      	str	r2, [r3, #0]
 8001950:	681a      	ldr	r2, [r3, #0]
 8001952:	f442 6280 	orr.w	r2, r2, #1024	; 0x400
 8001956:	601a      	str	r2, [r3, #0]
 8001958:	681a      	ldr	r2, [r3, #0]
 800195a:	f442 7280 	orr.w	r2, r2, #256	; 0x100
 800195e:	601a      	str	r2, [r3, #0]
 8001960:	2003      	movs	r0, #3
 8001962:	f000 f81b 	bl	800199c <HAL_NVIC_SetPriorityGrouping>
 8001966:	2000      	movs	r0, #0
 8001968:	f7ff ffc8 	bl	80018fc <HAL_InitTick>
 800196c:	f7ff fd6a 	bl	8001444 <HAL_MspInit>
 8001970:	2000      	movs	r0, #0
 8001972:	bd08      	pop	{r3, pc}
 8001974:	40023c00 	.word	0x40023c00

08001978 <HAL_IncTick>:
 8001978:	4a03      	ldr	r2, [pc, #12]	; (8001988 <HAL_IncTick+0x10>)
 800197a:	4b04      	ldr	r3, [pc, #16]	; (800198c <HAL_IncTick+0x14>)
 800197c:	6811      	ldr	r1, [r2, #0]
 800197e:	781b      	ldrb	r3, [r3, #0]
 8001980:	440b      	add	r3, r1
 8001982:	6013      	str	r3, [r2, #0]
 8001984:	4770      	bx	lr
 8001986:	bf00      	nop
 8001988:	2000ee20 	.word	0x2000ee20
 800198c:	20000008 	.word	0x20000008

08001990 <HAL_GetTick>:
 8001990:	4b01      	ldr	r3, [pc, #4]	; (8001998 <HAL_GetTick+0x8>)
 8001992:	6818      	ldr	r0, [r3, #0]
 8001994:	4770      	bx	lr
 8001996:	bf00      	nop
 8001998:	2000ee20 	.word	0x2000ee20

0800199c <HAL_NVIC_SetPriorityGrouping>:
 800199c:	4a07      	ldr	r2, [pc, #28]	; (80019bc <HAL_NVIC_SetPriorityGrouping+0x20>)
 800199e:	68d3      	ldr	r3, [r2, #12]
 80019a0:	f64f 01ff 	movw	r1, #63743	; 0xf8ff
 80019a4:	400b      	ands	r3, r1
 80019a6:	0200      	lsls	r0, r0, #8
 80019a8:	f043 63bf 	orr.w	r3, r3, #100139008	; 0x5f80000
 80019ac:	f400 60e0 	and.w	r0, r0, #1792	; 0x700
 80019b0:	f443 3300 	orr.w	r3, r3, #131072	; 0x20000
 80019b4:	4303      	orrs	r3, r0
 80019b6:	60d3      	str	r3, [r2, #12]
 80019b8:	4770      	bx	lr
 80019ba:	bf00      	nop
 80019bc:	e000ed00 	.word	0xe000ed00

080019c0 <HAL_NVIC_SetPriority>:
 80019c0:	4b18      	ldr	r3, [pc, #96]	; (8001a24 <HAL_NVIC_SetPriority+0x64>)
 80019c2:	68db      	ldr	r3, [r3, #12]
 80019c4:	f3c3 2302 	ubfx	r3, r3, #8, #3
 80019c8:	b430      	push	{r4, r5}
 80019ca:	f1c3 0507 	rsb	r5, r3, #7
 80019ce:	2d04      	cmp	r5, #4
 80019d0:	f103 0404 	add.w	r4, r3, #4
 80019d4:	bf28      	it	cs
 80019d6:	2504      	movcs	r5, #4
 80019d8:	2c06      	cmp	r4, #6
 80019da:	d919      	bls.n	8001a10 <HAL_NVIC_SetPriority+0x50>
 80019dc:	3b03      	subs	r3, #3
 80019de:	f04f 34ff 	mov.w	r4, #4294967295
 80019e2:	409c      	lsls	r4, r3
 80019e4:	ea22 0404 	bic.w	r4, r2, r4
 80019e8:	f04f 32ff 	mov.w	r2, #4294967295
 80019ec:	40aa      	lsls	r2, r5
 80019ee:	ea21 0102 	bic.w	r1, r1, r2
 80019f2:	fa01 f203 	lsl.w	r2, r1, r3
 80019f6:	4322      	orrs	r2, r4
 80019f8:	0112      	lsls	r2, r2, #4
 80019fa:	2800      	cmp	r0, #0
 80019fc:	b2d2      	uxtb	r2, r2
 80019fe:	db0a      	blt.n	8001a16 <HAL_NVIC_SetPriority+0x56>
 8001a00:	f100 4060 	add.w	r0, r0, #3758096384	; 0xe0000000
 8001a04:	f500 4061 	add.w	r0, r0, #57600	; 0xe100
 8001a08:	f880 2300 	strb.w	r2, [r0, #768]	; 0x300
 8001a0c:	bc30      	pop	{r4, r5}
 8001a0e:	4770      	bx	lr
 8001a10:	2400      	movs	r4, #0
 8001a12:	4623      	mov	r3, r4
 8001a14:	e7e8      	b.n	80019e8 <HAL_NVIC_SetPriority+0x28>
 8001a16:	4b04      	ldr	r3, [pc, #16]	; (8001a28 <HAL_NVIC_SetPriority+0x68>)
 8001a18:	f000 000f 	and.w	r0, r0, #15
 8001a1c:	4403      	add	r3, r0
 8001a1e:	761a      	strb	r2, [r3, #24]
 8001a20:	bc30      	pop	{r4, r5}
 8001a22:	4770      	bx	lr
 8001a24:	e000ed00 	.word	0xe000ed00
 8001a28:	e000ecfc 	.word	0xe000ecfc

08001a2c <HAL_NVIC_EnableIRQ>:
 8001a2c:	2800      	cmp	r0, #0
 8001a2e:	db07      	blt.n	8001a40 <HAL_NVIC_EnableIRQ+0x14>
 8001a30:	f000 011f 	and.w	r1, r0, #31
 8001a34:	2301      	movs	r3, #1
 8001a36:	0940      	lsrs	r0, r0, #5
 8001a38:	4a02      	ldr	r2, [pc, #8]	; (8001a44 <HAL_NVIC_EnableIRQ+0x18>)
 8001a3a:	408b      	lsls	r3, r1
 8001a3c:	f842 3020 	str.w	r3, [r2, r0, lsl #2]
 8001a40:	4770      	bx	lr
 8001a42:	bf00      	nop
 8001a44:	e000e100 	.word	0xe000e100

08001a48 <HAL_SYSTICK_Config>:
 8001a48:	3801      	subs	r0, #1
 8001a4a:	f1b0 7f80 	cmp.w	r0, #16777216	; 0x1000000
 8001a4e:	d20e      	bcs.n	8001a6e <HAL_SYSTICK_Config+0x26>
 8001a50:	4b08      	ldr	r3, [pc, #32]	; (8001a74 <HAL_SYSTICK_Config+0x2c>)
 8001a52:	b410      	push	{r4}
 8001a54:	4c08      	ldr	r4, [pc, #32]	; (8001a78 <HAL_SYSTICK_Config+0x30>)
 8001a56:	6058      	str	r0, [r3, #4]
 8001a58:	20f0      	movs	r0, #240	; 0xf0
 8001a5a:	f884 0023 	strb.w	r0, [r4, #35]	; 0x23
 8001a5e:	2200      	movs	r2, #0
 8001a60:	2107      	movs	r1, #7
 8001a62:	4610      	mov	r0, r2
 8001a64:	609a      	str	r2, [r3, #8]
 8001a66:	6019      	str	r1, [r3, #0]
 8001a68:	f85d 4b04 	ldr.w	r4, [sp], #4
 8001a6c:	4770      	bx	lr
 8001a6e:	2001      	movs	r0, #1
 8001a70:	4770      	bx	lr
 8001a72:	bf00      	nop
 8001a74:	e000e010 	.word	0xe000e010
 8001a78:	e000ed00 	.word	0xe000ed00

08001a7c <HAL_DMA_Abort_IT>:
 8001a7c:	f890 3035 	ldrb.w	r3, [r0, #53]	; 0x35
 8001a80:	2b02      	cmp	r3, #2
 8001a82:	d003      	beq.n	8001a8c <HAL_DMA_Abort_IT+0x10>
 8001a84:	2380      	movs	r3, #128	; 0x80
 8001a86:	6543      	str	r3, [r0, #84]	; 0x54
 8001a88:	2001      	movs	r0, #1
 8001a8a:	4770      	bx	lr
 8001a8c:	6802      	ldr	r2, [r0, #0]
 8001a8e:	2305      	movs	r3, #5
 8001a90:	f880 3035 	strb.w	r3, [r0, #53]	; 0x35
 8001a94:	6813      	ldr	r3, [r2, #0]
 8001a96:	f023 0301 	bic.w	r3, r3, #1
 8001a9a:	6013      	str	r3, [r2, #0]
 8001a9c:	2000      	movs	r0, #0
 8001a9e:	4770      	bx	lr

08001aa0 <HAL_GPIO_Init>:
 8001aa0:	e92d 4ff0 	stmdb	sp!, {r4, r5, r6, r7, r8, r9, sl, fp, lr}
 8001aa4:	f8d1 8000 	ldr.w	r8, [r1]
 8001aa8:	f8df e1f4 	ldr.w	lr, [pc, #500]	; 8001ca0 <HAL_GPIO_Init+0x200>
 8001aac:	b083      	sub	sp, #12
 8001aae:	2400      	movs	r4, #0
 8001ab0:	e003      	b.n	8001aba <HAL_GPIO_Init+0x1a>
 8001ab2:	3401      	adds	r4, #1
 8001ab4:	2c10      	cmp	r4, #16
 8001ab6:	f000 808c 	beq.w	8001bd2 <HAL_GPIO_Init+0x132>
 8001aba:	2301      	movs	r3, #1
 8001abc:	40a3      	lsls	r3, r4
 8001abe:	ea08 0203 	and.w	r2, r8, r3
 8001ac2:	4293      	cmp	r3, r2
 8001ac4:	d1f5      	bne.n	8001ab2 <HAL_GPIO_Init+0x12>
 8001ac6:	e9d1 6501 	ldrd	r6, r5, [r1, #4]
 8001aca:	f026 0910 	bic.w	r9, r6, #16
 8001ace:	ea4f 0c44 	mov.w	ip, r4, lsl #1
 8001ad2:	2303      	movs	r3, #3
 8001ad4:	f109 37ff 	add.w	r7, r9, #4294967295
 8001ad8:	fa03 f30c 	lsl.w	r3, r3, ip
 8001adc:	2f01      	cmp	r7, #1
 8001ade:	ea6f 0303 	mvn.w	r3, r3
 8001ae2:	fa05 f50c 	lsl.w	r5, r5, ip
 8001ae6:	d977      	bls.n	8001bd8 <HAL_GPIO_Init+0x138>
 8001ae8:	68c7      	ldr	r7, [r0, #12]
 8001aea:	401f      	ands	r7, r3
 8001aec:	433d      	orrs	r5, r7
 8001aee:	60c5      	str	r5, [r0, #12]
 8001af0:	6807      	ldr	r7, [r0, #0]
 8001af2:	f006 0503 	and.w	r5, r6, #3
 8001af6:	401f      	ands	r7, r3
 8001af8:	fa05 f30c 	lsl.w	r3, r5, ip
 8001afc:	433b      	orrs	r3, r7
 8001afe:	6003      	str	r3, [r0, #0]
 8001b00:	00f3      	lsls	r3, r6, #3
 8001b02:	d5d6      	bpl.n	8001ab2 <HAL_GPIO_Init+0x12>
 8001b04:	4d5f      	ldr	r5, [pc, #380]	; (8001c84 <HAL_GPIO_Init+0x1e4>)
 8001b06:	2300      	movs	r3, #0
 8001b08:	9301      	str	r3, [sp, #4]
 8001b0a:	6c6b      	ldr	r3, [r5, #68]	; 0x44
 8001b0c:	f443 4380 	orr.w	r3, r3, #16384	; 0x4000
 8001b10:	646b      	str	r3, [r5, #68]	; 0x44
 8001b12:	6c6d      	ldr	r5, [r5, #68]	; 0x44
 8001b14:	f024 0303 	bic.w	r3, r4, #3
 8001b18:	f405 4580 	and.w	r5, r5, #16384	; 0x4000
 8001b1c:	f103 4380 	add.w	r3, r3, #1073741824	; 0x40000000
 8001b20:	9501      	str	r5, [sp, #4]
 8001b22:	f503 339c 	add.w	r3, r3, #79872	; 0x13800
 8001b26:	f004 0503 	and.w	r5, r4, #3
 8001b2a:	ea4f 0985 	mov.w	r9, r5, lsl #2
 8001b2e:	4d56      	ldr	r5, [pc, #344]	; (8001c88 <HAL_GPIO_Init+0x1e8>)
 8001b30:	9f01      	ldr	r7, [sp, #4]
 8001b32:	f8d3 c008 	ldr.w	ip, [r3, #8]
 8001b36:	270f      	movs	r7, #15
 8001b38:	fa07 f709 	lsl.w	r7, r7, r9
 8001b3c:	42a8      	cmp	r0, r5
 8001b3e:	ea2c 0707 	bic.w	r7, ip, r7
 8001b42:	d01f      	beq.n	8001b84 <HAL_GPIO_Init+0xe4>
 8001b44:	f505 6580 	add.w	r5, r5, #1024	; 0x400
 8001b48:	42a8      	cmp	r0, r5
 8001b4a:	d076      	beq.n	8001c3a <HAL_GPIO_Init+0x19a>
 8001b4c:	4d4f      	ldr	r5, [pc, #316]	; (8001c8c <HAL_GPIO_Init+0x1ec>)
 8001b4e:	42a8      	cmp	r0, r5
 8001b50:	d079      	beq.n	8001c46 <HAL_GPIO_Init+0x1a6>
 8001b52:	4d4f      	ldr	r5, [pc, #316]	; (8001c90 <HAL_GPIO_Init+0x1f0>)
 8001b54:	42a8      	cmp	r0, r5
 8001b56:	d07c      	beq.n	8001c52 <HAL_GPIO_Init+0x1b2>
 8001b58:	4d4e      	ldr	r5, [pc, #312]	; (8001c94 <HAL_GPIO_Init+0x1f4>)
 8001b5a:	42a8      	cmp	r0, r5
 8001b5c:	d07f      	beq.n	8001c5e <HAL_GPIO_Init+0x1be>
 8001b5e:	4d4e      	ldr	r5, [pc, #312]	; (8001c98 <HAL_GPIO_Init+0x1f8>)
 8001b60:	42a8      	cmp	r0, r5
 8001b62:	f000 8082 	beq.w	8001c6a <HAL_GPIO_Init+0x1ca>
 8001b66:	4d4d      	ldr	r5, [pc, #308]	; (8001c9c <HAL_GPIO_Init+0x1fc>)
 8001b68:	42a8      	cmp	r0, r5
 8001b6a:	f000 8084 	beq.w	8001c76 <HAL_GPIO_Init+0x1d6>
 8001b6e:	f8df c134 	ldr.w	ip, [pc, #308]	; 8001ca4 <HAL_GPIO_Init+0x204>
 8001b72:	4560      	cmp	r0, ip
 8001b74:	bf0c      	ite	eq
 8001b76:	f04f 0c07 	moveq.w	ip, #7
 8001b7a:	f04f 0c08 	movne.w	ip, #8
 8001b7e:	fa0c f509 	lsl.w	r5, ip, r9
 8001b82:	432f      	orrs	r7, r5
 8001b84:	609f      	str	r7, [r3, #8]
 8001b86:	f8de 3000 	ldr.w	r3, [lr]
 8001b8a:	43d5      	mvns	r5, r2
 8001b8c:	03f7      	lsls	r7, r6, #15
 8001b8e:	bf54      	ite	pl
 8001b90:	402b      	andpl	r3, r5
 8001b92:	4313      	orrmi	r3, r2
 8001b94:	f8ce 3000 	str.w	r3, [lr]
 8001b98:	f8de 3004 	ldr.w	r3, [lr, #4]
 8001b9c:	03b7      	lsls	r7, r6, #14
 8001b9e:	bf54      	ite	pl
 8001ba0:	402b      	andpl	r3, r5
 8001ba2:	4313      	orrmi	r3, r2
 8001ba4:	f8ce 3004 	str.w	r3, [lr, #4]
 8001ba8:	f8de 3008 	ldr.w	r3, [lr, #8]
 8001bac:	02f7      	lsls	r7, r6, #11
 8001bae:	bf54      	ite	pl
 8001bb0:	402b      	andpl	r3, r5
 8001bb2:	4313      	orrmi	r3, r2
 8001bb4:	f8ce 3008 	str.w	r3, [lr, #8]
 8001bb8:	f8de 300c 	ldr.w	r3, [lr, #12]
 8001bbc:	02b6      	lsls	r6, r6, #10
 8001bbe:	f104 0401 	add.w	r4, r4, #1
 8001bc2:	bf54      	ite	pl
 8001bc4:	402b      	andpl	r3, r5
 8001bc6:	4313      	orrmi	r3, r2
 8001bc8:	2c10      	cmp	r4, #16
 8001bca:	f8ce 300c 	str.w	r3, [lr, #12]
 8001bce:	f47f af74 	bne.w	8001aba <HAL_GPIO_Init+0x1a>
 8001bd2:	b003      	add	sp, #12
 8001bd4:	e8bd 8ff0 	ldmia.w	sp!, {r4, r5, r6, r7, r8, r9, sl, fp, pc}
 8001bd8:	6887      	ldr	r7, [r0, #8]
 8001bda:	ea07 0a03 	and.w	sl, r7, r3
 8001bde:	68cf      	ldr	r7, [r1, #12]
 8001be0:	fa07 f70c 	lsl.w	r7, r7, ip
 8001be4:	ea47 070a 	orr.w	r7, r7, sl
 8001be8:	6087      	str	r7, [r0, #8]
 8001bea:	f8d0 a004 	ldr.w	sl, [r0, #4]
 8001bee:	f3c6 1700 	ubfx	r7, r6, #4, #1
 8001bf2:	ea2a 0a02 	bic.w	sl, sl, r2
 8001bf6:	40a7      	lsls	r7, r4
 8001bf8:	ea47 070a 	orr.w	r7, r7, sl
 8001bfc:	6047      	str	r7, [r0, #4]
 8001bfe:	68c7      	ldr	r7, [r0, #12]
 8001c00:	401f      	ands	r7, r3
 8001c02:	433d      	orrs	r5, r7
 8001c04:	f1b9 0f02 	cmp.w	r9, #2
 8001c08:	60c5      	str	r5, [r0, #12]
 8001c0a:	f47f af71 	bne.w	8001af0 <HAL_GPIO_Init+0x50>
 8001c0e:	ea4f 09d4 	mov.w	r9, r4, lsr #3
 8001c12:	eb00 0989 	add.w	r9, r0, r9, lsl #2
 8001c16:	f004 0707 	and.w	r7, r4, #7
 8001c1a:	f8d9 5020 	ldr.w	r5, [r9, #32]
 8001c1e:	00bf      	lsls	r7, r7, #2
 8001c20:	f04f 0b0f 	mov.w	fp, #15
 8001c24:	fa0b fb07 	lsl.w	fp, fp, r7
 8001c28:	ea25 0a0b 	bic.w	sl, r5, fp
 8001c2c:	690d      	ldr	r5, [r1, #16]
 8001c2e:	40bd      	lsls	r5, r7
 8001c30:	ea45 050a 	orr.w	r5, r5, sl
 8001c34:	f8c9 5020 	str.w	r5, [r9, #32]
 8001c38:	e75a      	b.n	8001af0 <HAL_GPIO_Init+0x50>
 8001c3a:	f04f 0c01 	mov.w	ip, #1
 8001c3e:	fa0c f509 	lsl.w	r5, ip, r9
 8001c42:	432f      	orrs	r7, r5
 8001c44:	e79e      	b.n	8001b84 <HAL_GPIO_Init+0xe4>
 8001c46:	f04f 0c02 	mov.w	ip, #2
 8001c4a:	fa0c f509 	lsl.w	r5, ip, r9
 8001c4e:	432f      	orrs	r7, r5
 8001c50:	e798      	b.n	8001b84 <HAL_GPIO_Init+0xe4>
 8001c52:	f04f 0c03 	mov.w	ip, #3
 8001c56:	fa0c f509 	lsl.w	r5, ip, r9
 8001c5a:	432f      	orrs	r7, r5
 8001c5c:	e792      	b.n	8001b84 <HAL_GPIO_Init+0xe4>
 8001c5e:	f04f 0c04 	mov.w	ip, #4
 8001c62:	fa0c f509 	lsl.w	r5, ip, r9
 8001c66:	432f      	orrs	r7, r5
 8001c68:	e78c      	b.n	8001b84 <HAL_GPIO_Init+0xe4>
 8001c6a:	f04f 0c05 	mov.w	ip, #5
 8001c6e:	fa0c f509 	lsl.w	r5, ip, r9
 8001c72:	432f      	orrs	r7, r5
 8001c74:	e786      	b.n	8001b84 <HAL_GPIO_Init+0xe4>
 8001c76:	f04f 0c06 	mov.w	ip, #6
 8001c7a:	fa0c f509 	lsl.w	r5, ip, r9
 8001c7e:	432f      	orrs	r7, r5
 8001c80:	e780      	b.n	8001b84 <HAL_GPIO_Init+0xe4>
 8001c82:	bf00      	nop
 8001c84:	40023800 	.word	0x40023800
 8001c88:	40020000 	.word	0x40020000
 8001c8c:	40020800 	.word	0x40020800
 8001c90:	40020c00 	.word	0x40020c00
 8001c94:	40021000 	.word	0x40021000
 8001c98:	40021400 	.word	0x40021400
 8001c9c:	40021800 	.word	0x40021800
 8001ca0:	40013c00 	.word	0x40013c00
 8001ca4:	40021c00 	.word	0x40021c00

08001ca8 <HAL_GPIO_WritePin>:
 8001ca8:	b902      	cbnz	r2, 8001cac <HAL_GPIO_WritePin+0x4>
 8001caa:	0409      	lsls	r1, r1, #16
 8001cac:	6181      	str	r1, [r0, #24]
 8001cae:	4770      	bx	lr

08001cb0 <HAL_RCC_OscConfig>:
 8001cb0:	2800      	cmp	r0, #0
 8001cb2:	f000 8132 	beq.w	8001f1a <HAL_RCC_OscConfig+0x26a>
 8001cb6:	e92d 41f0 	stmdb	sp!, {r4, r5, r6, r7, r8, lr}
 8001cba:	6803      	ldr	r3, [r0, #0]
 8001cbc:	07dd      	lsls	r5, r3, #31
 8001cbe:	b082      	sub	sp, #8
 8001cc0:	4604      	mov	r4, r0
 8001cc2:	d52f      	bpl.n	8001d24 <HAL_RCC_OscConfig+0x74>
 8001cc4:	49ac      	ldr	r1, [pc, #688]	; (8001f78 <HAL_RCC_OscConfig+0x2c8>)
 8001cc6:	688a      	ldr	r2, [r1, #8]
 8001cc8:	f002 020c 	and.w	r2, r2, #12
 8001ccc:	2a04      	cmp	r2, #4
 8001cce:	f000 80ea 	beq.w	8001ea6 <HAL_RCC_OscConfig+0x1f6>
 8001cd2:	688a      	ldr	r2, [r1, #8]
 8001cd4:	f002 020c 	and.w	r2, r2, #12
 8001cd8:	2a08      	cmp	r2, #8
 8001cda:	f000 80e0 	beq.w	8001e9e <HAL_RCC_OscConfig+0x1ee>
 8001cde:	6863      	ldr	r3, [r4, #4]
 8001ce0:	f5b3 3f80 	cmp.w	r3, #65536	; 0x10000
 8001ce4:	f000 80e9 	beq.w	8001eba <HAL_RCC_OscConfig+0x20a>
 8001ce8:	f5b3 2fa0 	cmp.w	r3, #327680	; 0x50000
 8001cec:	f000 8178 	beq.w	8001fe0 <HAL_RCC_OscConfig+0x330>
 8001cf0:	4da1      	ldr	r5, [pc, #644]	; (8001f78 <HAL_RCC_OscConfig+0x2c8>)
 8001cf2:	682a      	ldr	r2, [r5, #0]
 8001cf4:	f422 3280 	bic.w	r2, r2, #65536	; 0x10000
 8001cf8:	602a      	str	r2, [r5, #0]
 8001cfa:	682a      	ldr	r2, [r5, #0]
 8001cfc:	f422 2280 	bic.w	r2, r2, #262144	; 0x40000
 8001d00:	602a      	str	r2, [r5, #0]
 8001d02:	2b00      	cmp	r3, #0
 8001d04:	f040 80de 	bne.w	8001ec4 <HAL_RCC_OscConfig+0x214>
 8001d08:	f7ff fe42 	bl	8001990 <HAL_GetTick>
 8001d0c:	4606      	mov	r6, r0
 8001d0e:	e005      	b.n	8001d1c <HAL_RCC_OscConfig+0x6c>
 8001d10:	f7ff fe3e 	bl	8001990 <HAL_GetTick>
 8001d14:	1b80      	subs	r0, r0, r6
 8001d16:	2864      	cmp	r0, #100	; 0x64
 8001d18:	f200 80f2 	bhi.w	8001f00 <HAL_RCC_OscConfig+0x250>
 8001d1c:	682b      	ldr	r3, [r5, #0]
 8001d1e:	039b      	lsls	r3, r3, #14
 8001d20:	d4f6      	bmi.n	8001d10 <HAL_RCC_OscConfig+0x60>
 8001d22:	6823      	ldr	r3, [r4, #0]
 8001d24:	079f      	lsls	r7, r3, #30
 8001d26:	d475      	bmi.n	8001e14 <HAL_RCC_OscConfig+0x164>
 8001d28:	071a      	lsls	r2, r3, #28
 8001d2a:	d515      	bpl.n	8001d58 <HAL_RCC_OscConfig+0xa8>
 8001d2c:	6963      	ldr	r3, [r4, #20]
 8001d2e:	2b00      	cmp	r3, #0
 8001d30:	f000 80a5 	beq.w	8001e7e <HAL_RCC_OscConfig+0x1ce>
 8001d34:	4b91      	ldr	r3, [pc, #580]	; (8001f7c <HAL_RCC_OscConfig+0x2cc>)
 8001d36:	4d90      	ldr	r5, [pc, #576]	; (8001f78 <HAL_RCC_OscConfig+0x2c8>)
 8001d38:	2201      	movs	r2, #1
 8001d3a:	601a      	str	r2, [r3, #0]
 8001d3c:	f7ff fe28 	bl	8001990 <HAL_GetTick>
 8001d40:	4606      	mov	r6, r0
 8001d42:	e005      	b.n	8001d50 <HAL_RCC_OscConfig+0xa0>
 8001d44:	f7ff fe24 	bl	8001990 <HAL_GetTick>
 8001d48:	1b80      	subs	r0, r0, r6
 8001d4a:	2802      	cmp	r0, #2
 8001d4c:	f200 80d8 	bhi.w	8001f00 <HAL_RCC_OscConfig+0x250>
 8001d50:	6f6b      	ldr	r3, [r5, #116]	; 0x74
 8001d52:	079b      	lsls	r3, r3, #30
 8001d54:	d5f6      	bpl.n	8001d44 <HAL_RCC_OscConfig+0x94>
 8001d56:	6823      	ldr	r3, [r4, #0]
 8001d58:	0758      	lsls	r0, r3, #29
 8001d5a:	d53b      	bpl.n	8001dd4 <HAL_RCC_OscConfig+0x124>
 8001d5c:	4a86      	ldr	r2, [pc, #536]	; (8001f78 <HAL_RCC_OscConfig+0x2c8>)
 8001d5e:	6c13      	ldr	r3, [r2, #64]	; 0x40
 8001d60:	f013 5380 	ands.w	r3, r3, #268435456	; 0x10000000
 8001d64:	f040 80db 	bne.w	8001f1e <HAL_RCC_OscConfig+0x26e>
 8001d68:	9301      	str	r3, [sp, #4]
 8001d6a:	6c13      	ldr	r3, [r2, #64]	; 0x40
 8001d6c:	f043 5380 	orr.w	r3, r3, #268435456	; 0x10000000
 8001d70:	6413      	str	r3, [r2, #64]	; 0x40
 8001d72:	6c13      	ldr	r3, [r2, #64]	; 0x40
 8001d74:	f003 5380 	and.w	r3, r3, #268435456	; 0x10000000
 8001d78:	9301      	str	r3, [sp, #4]
 8001d7a:	9b01      	ldr	r3, [sp, #4]
 8001d7c:	2601      	movs	r6, #1
 8001d7e:	4d80      	ldr	r5, [pc, #512]	; (8001f80 <HAL_RCC_OscConfig+0x2d0>)
 8001d80:	682a      	ldr	r2, [r5, #0]
 8001d82:	05d1      	lsls	r1, r2, #23
 8001d84:	f140 80ac 	bpl.w	8001ee0 <HAL_RCC_OscConfig+0x230>
 8001d88:	68a3      	ldr	r3, [r4, #8]
 8001d8a:	2b01      	cmp	r3, #1
 8001d8c:	f000 80c9 	beq.w	8001f22 <HAL_RCC_OscConfig+0x272>
 8001d90:	2b05      	cmp	r3, #5
 8001d92:	f000 812f 	beq.w	8001ff4 <HAL_RCC_OscConfig+0x344>
 8001d96:	4d78      	ldr	r5, [pc, #480]	; (8001f78 <HAL_RCC_OscConfig+0x2c8>)
 8001d98:	6f2a      	ldr	r2, [r5, #112]	; 0x70
 8001d9a:	f022 0201 	bic.w	r2, r2, #1
 8001d9e:	672a      	str	r2, [r5, #112]	; 0x70
 8001da0:	6f2a      	ldr	r2, [r5, #112]	; 0x70
 8001da2:	f022 0204 	bic.w	r2, r2, #4
 8001da6:	672a      	str	r2, [r5, #112]	; 0x70
 8001da8:	2b00      	cmp	r3, #0
 8001daa:	f040 80bf 	bne.w	8001f2c <HAL_RCC_OscConfig+0x27c>
 8001dae:	f7ff fdef 	bl	8001990 <HAL_GetTick>
 8001db2:	f241 3788 	movw	r7, #5000	; 0x1388
 8001db6:	4680      	mov	r8, r0
 8001db8:	e006      	b.n	8001dc8 <HAL_RCC_OscConfig+0x118>
 8001dba:	f7ff fde9 	bl	8001990 <HAL_GetTick>
 8001dbe:	eba0 0008 	sub.w	r0, r0, r8
 8001dc2:	42b8      	cmp	r0, r7
 8001dc4:	f200 809c 	bhi.w	8001f00 <HAL_RCC_OscConfig+0x250>
 8001dc8:	6f2b      	ldr	r3, [r5, #112]	; 0x70
 8001dca:	0798      	lsls	r0, r3, #30
 8001dcc:	d4f5      	bmi.n	8001dba <HAL_RCC_OscConfig+0x10a>
 8001dce:	2e00      	cmp	r6, #0
 8001dd0:	f040 80dc 	bne.w	8001f8c <HAL_RCC_OscConfig+0x2dc>
 8001dd4:	69a0      	ldr	r0, [r4, #24]
 8001dd6:	b1c8      	cbz	r0, 8001e0c <HAL_RCC_OscConfig+0x15c>
 8001dd8:	4d67      	ldr	r5, [pc, #412]	; (8001f78 <HAL_RCC_OscConfig+0x2c8>)
 8001dda:	68aa      	ldr	r2, [r5, #8]
 8001ddc:	f002 020c 	and.w	r2, r2, #12
 8001de0:	2a08      	cmp	r2, #8
 8001de2:	f000 80d9 	beq.w	8001f98 <HAL_RCC_OscConfig+0x2e8>
 8001de6:	4a67      	ldr	r2, [pc, #412]	; (8001f84 <HAL_RCC_OscConfig+0x2d4>)
 8001de8:	2100      	movs	r1, #0
 8001dea:	2802      	cmp	r0, #2
 8001dec:	6011      	str	r1, [r2, #0]
 8001dee:	f000 810b 	beq.w	8002008 <HAL_RCC_OscConfig+0x358>
 8001df2:	f7ff fdcd 	bl	8001990 <HAL_GetTick>
 8001df6:	462c      	mov	r4, r5
 8001df8:	4605      	mov	r5, r0
 8001dfa:	e004      	b.n	8001e06 <HAL_RCC_OscConfig+0x156>
 8001dfc:	f7ff fdc8 	bl	8001990 <HAL_GetTick>
 8001e00:	1b40      	subs	r0, r0, r5
 8001e02:	2802      	cmp	r0, #2
 8001e04:	d87c      	bhi.n	8001f00 <HAL_RCC_OscConfig+0x250>
 8001e06:	6823      	ldr	r3, [r4, #0]
 8001e08:	019b      	lsls	r3, r3, #6
 8001e0a:	d4f7      	bmi.n	8001dfc <HAL_RCC_OscConfig+0x14c>
 8001e0c:	2000      	movs	r0, #0
 8001e0e:	b002      	add	sp, #8
 8001e10:	e8bd 81f0 	ldmia.w	sp!, {r4, r5, r6, r7, r8, pc}
 8001e14:	4a58      	ldr	r2, [pc, #352]	; (8001f78 <HAL_RCC_OscConfig+0x2c8>)
 8001e16:	6891      	ldr	r1, [r2, #8]
 8001e18:	f011 0f0c 	tst.w	r1, #12
 8001e1c:	d024      	beq.n	8001e68 <HAL_RCC_OscConfig+0x1b8>
 8001e1e:	6891      	ldr	r1, [r2, #8]
 8001e20:	f001 010c 	and.w	r1, r1, #12
 8001e24:	2908      	cmp	r1, #8
 8001e26:	d01c      	beq.n	8001e62 <HAL_RCC_OscConfig+0x1b2>
 8001e28:	68e3      	ldr	r3, [r4, #12]
 8001e2a:	2b00      	cmp	r3, #0
 8001e2c:	f000 8092 	beq.w	8001f54 <HAL_RCC_OscConfig+0x2a4>
 8001e30:	4b55      	ldr	r3, [pc, #340]	; (8001f88 <HAL_RCC_OscConfig+0x2d8>)
 8001e32:	4d51      	ldr	r5, [pc, #324]	; (8001f78 <HAL_RCC_OscConfig+0x2c8>)
 8001e34:	2201      	movs	r2, #1
 8001e36:	601a      	str	r2, [r3, #0]
 8001e38:	f7ff fdaa 	bl	8001990 <HAL_GetTick>
 8001e3c:	4606      	mov	r6, r0
 8001e3e:	e004      	b.n	8001e4a <HAL_RCC_OscConfig+0x19a>
 8001e40:	f7ff fda6 	bl	8001990 <HAL_GetTick>
 8001e44:	1b80      	subs	r0, r0, r6
 8001e46:	2802      	cmp	r0, #2
 8001e48:	d85a      	bhi.n	8001f00 <HAL_RCC_OscConfig+0x250>
 8001e4a:	682b      	ldr	r3, [r5, #0]
 8001e4c:	0798      	lsls	r0, r3, #30
 8001e4e:	d5f7      	bpl.n	8001e40 <HAL_RCC_OscConfig+0x190>
 8001e50:	682b      	ldr	r3, [r5, #0]
 8001e52:	6922      	ldr	r2, [r4, #16]
 8001e54:	f023 03f8 	bic.w	r3, r3, #248	; 0xf8
 8001e58:	ea43 03c2 	orr.w	r3, r3, r2, lsl #3
 8001e5c:	602b      	str	r3, [r5, #0]
 8001e5e:	6823      	ldr	r3, [r4, #0]
 8001e60:	e762      	b.n	8001d28 <HAL_RCC_OscConfig+0x78>
 8001e62:	6852      	ldr	r2, [r2, #4]
 8001e64:	0256      	lsls	r6, r2, #9
 8001e66:	d4df      	bmi.n	8001e28 <HAL_RCC_OscConfig+0x178>
 8001e68:	4a43      	ldr	r2, [pc, #268]	; (8001f78 <HAL_RCC_OscConfig+0x2c8>)
 8001e6a:	6812      	ldr	r2, [r2, #0]
 8001e6c:	0795      	lsls	r5, r2, #30
 8001e6e:	d54b      	bpl.n	8001f08 <HAL_RCC_OscConfig+0x258>
 8001e70:	68e2      	ldr	r2, [r4, #12]
 8001e72:	2a01      	cmp	r2, #1
 8001e74:	d048      	beq.n	8001f08 <HAL_RCC_OscConfig+0x258>
 8001e76:	2001      	movs	r0, #1
 8001e78:	b002      	add	sp, #8
 8001e7a:	e8bd 81f0 	ldmia.w	sp!, {r4, r5, r6, r7, r8, pc}
 8001e7e:	4a3f      	ldr	r2, [pc, #252]	; (8001f7c <HAL_RCC_OscConfig+0x2cc>)
 8001e80:	4d3d      	ldr	r5, [pc, #244]	; (8001f78 <HAL_RCC_OscConfig+0x2c8>)
 8001e82:	6013      	str	r3, [r2, #0]
 8001e84:	f7ff fd84 	bl	8001990 <HAL_GetTick>
 8001e88:	4606      	mov	r6, r0
 8001e8a:	e004      	b.n	8001e96 <HAL_RCC_OscConfig+0x1e6>
 8001e8c:	f7ff fd80 	bl	8001990 <HAL_GetTick>
 8001e90:	1b80      	subs	r0, r0, r6
 8001e92:	2802      	cmp	r0, #2
 8001e94:	d834      	bhi.n	8001f00 <HAL_RCC_OscConfig+0x250>
 8001e96:	6f6b      	ldr	r3, [r5, #116]	; 0x74
 8001e98:	079f      	lsls	r7, r3, #30
 8001e9a:	d4f7      	bmi.n	8001e8c <HAL_RCC_OscConfig+0x1dc>
 8001e9c:	e75b      	b.n	8001d56 <HAL_RCC_OscConfig+0xa6>
 8001e9e:	684a      	ldr	r2, [r1, #4]
 8001ea0:	0250      	lsls	r0, r2, #9
 8001ea2:	f57f af1c 	bpl.w	8001cde <HAL_RCC_OscConfig+0x2e>
 8001ea6:	4a34      	ldr	r2, [pc, #208]	; (8001f78 <HAL_RCC_OscConfig+0x2c8>)
 8001ea8:	6812      	ldr	r2, [r2, #0]
 8001eaa:	0391      	lsls	r1, r2, #14
 8001eac:	f57f af3a 	bpl.w	8001d24 <HAL_RCC_OscConfig+0x74>
 8001eb0:	6862      	ldr	r2, [r4, #4]
 8001eb2:	2a00      	cmp	r2, #0
 8001eb4:	f47f af36 	bne.w	8001d24 <HAL_RCC_OscConfig+0x74>
 8001eb8:	e7dd      	b.n	8001e76 <HAL_RCC_OscConfig+0x1c6>
 8001eba:	4a2f      	ldr	r2, [pc, #188]	; (8001f78 <HAL_RCC_OscConfig+0x2c8>)
 8001ebc:	6813      	ldr	r3, [r2, #0]
 8001ebe:	f443 3380 	orr.w	r3, r3, #65536	; 0x10000
 8001ec2:	6013      	str	r3, [r2, #0]
 8001ec4:	f7ff fd64 	bl	8001990 <HAL_GetTick>
 8001ec8:	4d2b      	ldr	r5, [pc, #172]	; (8001f78 <HAL_RCC_OscConfig+0x2c8>)
 8001eca:	4606      	mov	r6, r0
 8001ecc:	e004      	b.n	8001ed8 <HAL_RCC_OscConfig+0x228>
 8001ece:	f7ff fd5f 	bl	8001990 <HAL_GetTick>
 8001ed2:	1b80      	subs	r0, r0, r6
 8001ed4:	2864      	cmp	r0, #100	; 0x64
 8001ed6:	d813      	bhi.n	8001f00 <HAL_RCC_OscConfig+0x250>
 8001ed8:	682b      	ldr	r3, [r5, #0]
 8001eda:	039a      	lsls	r2, r3, #14
 8001edc:	d5f7      	bpl.n	8001ece <HAL_RCC_OscConfig+0x21e>
 8001ede:	e720      	b.n	8001d22 <HAL_RCC_OscConfig+0x72>
 8001ee0:	682a      	ldr	r2, [r5, #0]
 8001ee2:	f442 7280 	orr.w	r2, r2, #256	; 0x100
 8001ee6:	602a      	str	r2, [r5, #0]
 8001ee8:	f7ff fd52 	bl	8001990 <HAL_GetTick>
 8001eec:	4607      	mov	r7, r0
 8001eee:	682b      	ldr	r3, [r5, #0]
 8001ef0:	05da      	lsls	r2, r3, #23
 8001ef2:	f53f af49 	bmi.w	8001d88 <HAL_RCC_OscConfig+0xd8>
 8001ef6:	f7ff fd4b 	bl	8001990 <HAL_GetTick>
 8001efa:	1bc0      	subs	r0, r0, r7
 8001efc:	2802      	cmp	r0, #2
 8001efe:	d9f6      	bls.n	8001eee <HAL_RCC_OscConfig+0x23e>
 8001f00:	2003      	movs	r0, #3
 8001f02:	b002      	add	sp, #8
 8001f04:	e8bd 81f0 	ldmia.w	sp!, {r4, r5, r6, r7, r8, pc}
 8001f08:	491b      	ldr	r1, [pc, #108]	; (8001f78 <HAL_RCC_OscConfig+0x2c8>)
 8001f0a:	6920      	ldr	r0, [r4, #16]
 8001f0c:	680a      	ldr	r2, [r1, #0]
 8001f0e:	f022 02f8 	bic.w	r2, r2, #248	; 0xf8
 8001f12:	ea42 02c0 	orr.w	r2, r2, r0, lsl #3
 8001f16:	600a      	str	r2, [r1, #0]
 8001f18:	e706      	b.n	8001d28 <HAL_RCC_OscConfig+0x78>
 8001f1a:	2001      	movs	r0, #1
 8001f1c:	4770      	bx	lr
 8001f1e:	2600      	movs	r6, #0
 8001f20:	e72d      	b.n	8001d7e <HAL_RCC_OscConfig+0xce>
 8001f22:	4a15      	ldr	r2, [pc, #84]	; (8001f78 <HAL_RCC_OscConfig+0x2c8>)
 8001f24:	6f13      	ldr	r3, [r2, #112]	; 0x70
 8001f26:	f043 0301 	orr.w	r3, r3, #1
 8001f2a:	6713      	str	r3, [r2, #112]	; 0x70
 8001f2c:	f7ff fd30 	bl	8001990 <HAL_GetTick>
 8001f30:	4d11      	ldr	r5, [pc, #68]	; (8001f78 <HAL_RCC_OscConfig+0x2c8>)
 8001f32:	4680      	mov	r8, r0
 8001f34:	f241 3788 	movw	r7, #5000	; 0x1388
 8001f38:	e005      	b.n	8001f46 <HAL_RCC_OscConfig+0x296>
 8001f3a:	f7ff fd29 	bl	8001990 <HAL_GetTick>
 8001f3e:	eba0 0008 	sub.w	r0, r0, r8
 8001f42:	42b8      	cmp	r0, r7
 8001f44:	d8dc      	bhi.n	8001f00 <HAL_RCC_OscConfig+0x250>
 8001f46:	6f2b      	ldr	r3, [r5, #112]	; 0x70
 8001f48:	079b      	lsls	r3, r3, #30
 8001f4a:	d5f6      	bpl.n	8001f3a <HAL_RCC_OscConfig+0x28a>
 8001f4c:	2e00      	cmp	r6, #0
 8001f4e:	f43f af41 	beq.w	8001dd4 <HAL_RCC_OscConfig+0x124>
 8001f52:	e01b      	b.n	8001f8c <HAL_RCC_OscConfig+0x2dc>
 8001f54:	4a0c      	ldr	r2, [pc, #48]	; (8001f88 <HAL_RCC_OscConfig+0x2d8>)
 8001f56:	4d08      	ldr	r5, [pc, #32]	; (8001f78 <HAL_RCC_OscConfig+0x2c8>)
 8001f58:	6013      	str	r3, [r2, #0]
 8001f5a:	f7ff fd19 	bl	8001990 <HAL_GetTick>
 8001f5e:	4606      	mov	r6, r0
 8001f60:	e004      	b.n	8001f6c <HAL_RCC_OscConfig+0x2bc>
 8001f62:	f7ff fd15 	bl	8001990 <HAL_GetTick>
 8001f66:	1b80      	subs	r0, r0, r6
 8001f68:	2802      	cmp	r0, #2
 8001f6a:	d8c9      	bhi.n	8001f00 <HAL_RCC_OscConfig+0x250>
 8001f6c:	682b      	ldr	r3, [r5, #0]
 8001f6e:	0799      	lsls	r1, r3, #30
 8001f70:	d4f7      	bmi.n	8001f62 <HAL_RCC_OscConfig+0x2b2>
 8001f72:	6823      	ldr	r3, [r4, #0]
 8001f74:	e6d8      	b.n	8001d28 <HAL_RCC_OscConfig+0x78>
 8001f76:	bf00      	nop
 8001f78:	40023800 	.word	0x40023800
 8001f7c:	42470e80 	.word	0x42470e80
 8001f80:	40007000 	.word	0x40007000
 8001f84:	42470060 	.word	0x42470060
 8001f88:	42470000 	.word	0x42470000
 8001f8c:	4a35      	ldr	r2, [pc, #212]	; (8002064 <HAL_RCC_OscConfig+0x3b4>)
 8001f8e:	6c13      	ldr	r3, [r2, #64]	; 0x40
 8001f90:	f023 5380 	bic.w	r3, r3, #268435456	; 0x10000000
 8001f94:	6413      	str	r3, [r2, #64]	; 0x40
 8001f96:	e71d      	b.n	8001dd4 <HAL_RCC_OscConfig+0x124>
 8001f98:	2801      	cmp	r0, #1
 8001f9a:	f43f af6d 	beq.w	8001e78 <HAL_RCC_OscConfig+0x1c8>
 8001f9e:	68ab      	ldr	r3, [r5, #8]
 8001fa0:	69e2      	ldr	r2, [r4, #28]
 8001fa2:	f403 0180 	and.w	r1, r3, #4194304	; 0x400000
 8001fa6:	4291      	cmp	r1, r2
 8001fa8:	f47f af65 	bne.w	8001e76 <HAL_RCC_OscConfig+0x1c6>
 8001fac:	6a22      	ldr	r2, [r4, #32]
 8001fae:	f003 013f 	and.w	r1, r3, #63	; 0x3f
 8001fb2:	4291      	cmp	r1, r2
 8001fb4:	f47f af5f 	bne.w	8001e76 <HAL_RCC_OscConfig+0x1c6>
 8001fb8:	f647 72c0 	movw	r2, #32704	; 0x7fc0
 8001fbc:	6a61      	ldr	r1, [r4, #36]	; 0x24
 8001fbe:	401a      	ands	r2, r3
 8001fc0:	428a      	cmp	r2, r1
 8001fc2:	f47f af58 	bne.w	8001e76 <HAL_RCC_OscConfig+0x1c6>
 8001fc6:	6aa2      	ldr	r2, [r4, #40]	; 0x28
 8001fc8:	f403 3140 	and.w	r1, r3, #196608	; 0x30000
 8001fcc:	4291      	cmp	r1, r2
 8001fce:	f47f af52 	bne.w	8001e76 <HAL_RCC_OscConfig+0x1c6>
 8001fd2:	6ae0      	ldr	r0, [r4, #44]	; 0x2c
 8001fd4:	f003 6370 	and.w	r3, r3, #251658240	; 0xf000000
 8001fd8:	1a18      	subs	r0, r3, r0
 8001fda:	bf18      	it	ne
 8001fdc:	2001      	movne	r0, #1
 8001fde:	e74b      	b.n	8001e78 <HAL_RCC_OscConfig+0x1c8>
 8001fe0:	4b20      	ldr	r3, [pc, #128]	; (8002064 <HAL_RCC_OscConfig+0x3b4>)
 8001fe2:	681a      	ldr	r2, [r3, #0]
 8001fe4:	f442 2280 	orr.w	r2, r2, #262144	; 0x40000
 8001fe8:	601a      	str	r2, [r3, #0]
 8001fea:	681a      	ldr	r2, [r3, #0]
 8001fec:	f442 3280 	orr.w	r2, r2, #65536	; 0x10000
 8001ff0:	601a      	str	r2, [r3, #0]
 8001ff2:	e767      	b.n	8001ec4 <HAL_RCC_OscConfig+0x214>
 8001ff4:	4b1b      	ldr	r3, [pc, #108]	; (8002064 <HAL_RCC_OscConfig+0x3b4>)
 8001ff6:	6f1a      	ldr	r2, [r3, #112]	; 0x70
 8001ff8:	f042 0204 	orr.w	r2, r2, #4
 8001ffc:	671a      	str	r2, [r3, #112]	; 0x70
 8001ffe:	6f1a      	ldr	r2, [r3, #112]	; 0x70
 8002000:	f042 0201 	orr.w	r2, r2, #1
 8002004:	671a      	str	r2, [r3, #112]	; 0x70
 8002006:	e791      	b.n	8001f2c <HAL_RCC_OscConfig+0x27c>
 8002008:	f7ff fcc2 	bl	8001990 <HAL_GetTick>
 800200c:	4606      	mov	r6, r0
 800200e:	e005      	b.n	800201c <HAL_RCC_OscConfig+0x36c>
 8002010:	f7ff fcbe 	bl	8001990 <HAL_GetTick>
 8002014:	1b80      	subs	r0, r0, r6
 8002016:	2802      	cmp	r0, #2
 8002018:	f63f af72 	bhi.w	8001f00 <HAL_RCC_OscConfig+0x250>
 800201c:	682b      	ldr	r3, [r5, #0]
 800201e:	0199      	lsls	r1, r3, #6
 8002020:	d4f6      	bmi.n	8002010 <HAL_RCC_OscConfig+0x360>
 8002022:	e9d4 3607 	ldrd	r3, r6, [r4, #28]
 8002026:	e9d4 0209 	ldrd	r0, r2, [r4, #36]	; 0x24
 800202a:	6ae1      	ldr	r1, [r4, #44]	; 0x2c
 800202c:	4c0d      	ldr	r4, [pc, #52]	; (8002064 <HAL_RCC_OscConfig+0x3b4>)
 800202e:	4333      	orrs	r3, r6
 8002030:	ea43 1380 	orr.w	r3, r3, r0, lsl #6
 8002034:	0852      	lsrs	r2, r2, #1
 8002036:	ea43 6301 	orr.w	r3, r3, r1, lsl #24
 800203a:	3a01      	subs	r2, #1
 800203c:	490a      	ldr	r1, [pc, #40]	; (8002068 <HAL_RCC_OscConfig+0x3b8>)
 800203e:	ea43 4302 	orr.w	r3, r3, r2, lsl #16
 8002042:	2201      	movs	r2, #1
 8002044:	606b      	str	r3, [r5, #4]
 8002046:	600a      	str	r2, [r1, #0]
 8002048:	f7ff fca2 	bl	8001990 <HAL_GetTick>
 800204c:	4605      	mov	r5, r0
 800204e:	e005      	b.n	800205c <HAL_RCC_OscConfig+0x3ac>
 8002050:	f7ff fc9e 	bl	8001990 <HAL_GetTick>
 8002054:	1b40      	subs	r0, r0, r5
 8002056:	2802      	cmp	r0, #2
 8002058:	f63f af52 	bhi.w	8001f00 <HAL_RCC_OscConfig+0x250>
 800205c:	6823      	ldr	r3, [r4, #0]
 800205e:	019a      	lsls	r2, r3, #6
 8002060:	d5f6      	bpl.n	8002050 <HAL_RCC_OscConfig+0x3a0>
 8002062:	e6d3      	b.n	8001e0c <HAL_RCC_OscConfig+0x15c>
 8002064:	40023800 	.word	0x40023800
 8002068:	42470060 	.word	0x42470060

0800206c <HAL_RCC_GetSysClockFreq>:
 800206c:	4917      	ldr	r1, [pc, #92]	; (80020cc <HAL_RCC_GetSysClockFreq+0x60>)
 800206e:	b508      	push	{r3, lr}
 8002070:	688b      	ldr	r3, [r1, #8]
 8002072:	f003 030c 	and.w	r3, r3, #12
 8002076:	2b04      	cmp	r3, #4
 8002078:	d01b      	beq.n	80020b2 <HAL_RCC_GetSysClockFreq+0x46>
 800207a:	2b08      	cmp	r3, #8
 800207c:	d117      	bne.n	80020ae <HAL_RCC_GetSysClockFreq+0x42>
 800207e:	684a      	ldr	r2, [r1, #4]
 8002080:	684b      	ldr	r3, [r1, #4]
 8002082:	f413 0380 	ands.w	r3, r3, #4194304	; 0x400000
 8002086:	f002 023f 	and.w	r2, r2, #63	; 0x3f
 800208a:	d114      	bne.n	80020b6 <HAL_RCC_GetSysClockFreq+0x4a>
 800208c:	6849      	ldr	r1, [r1, #4]
 800208e:	4810      	ldr	r0, [pc, #64]	; (80020d0 <HAL_RCC_GetSysClockFreq+0x64>)
 8002090:	f3c1 1188 	ubfx	r1, r1, #6, #9
 8002094:	fba1 0100 	umull	r0, r1, r1, r0
 8002098:	f7fe fd3c 	bl	8000b14 <__aeabi_uldivmod>
 800209c:	4b0b      	ldr	r3, [pc, #44]	; (80020cc <HAL_RCC_GetSysClockFreq+0x60>)
 800209e:	685b      	ldr	r3, [r3, #4]
 80020a0:	f3c3 4301 	ubfx	r3, r3, #16, #2
 80020a4:	3301      	adds	r3, #1
 80020a6:	005b      	lsls	r3, r3, #1
 80020a8:	fbb0 f0f3 	udiv	r0, r0, r3
 80020ac:	bd08      	pop	{r3, pc}
 80020ae:	4808      	ldr	r0, [pc, #32]	; (80020d0 <HAL_RCC_GetSysClockFreq+0x64>)
 80020b0:	bd08      	pop	{r3, pc}
 80020b2:	4808      	ldr	r0, [pc, #32]	; (80020d4 <HAL_RCC_GetSysClockFreq+0x68>)
 80020b4:	bd08      	pop	{r3, pc}
 80020b6:	684b      	ldr	r3, [r1, #4]
 80020b8:	4806      	ldr	r0, [pc, #24]	; (80020d4 <HAL_RCC_GetSysClockFreq+0x68>)
 80020ba:	f3c3 1388 	ubfx	r3, r3, #6, #9
 80020be:	fba3 0100 	umull	r0, r1, r3, r0
 80020c2:	2300      	movs	r3, #0
 80020c4:	f7fe fd26 	bl	8000b14 <__aeabi_uldivmod>
 80020c8:	e7e8      	b.n	800209c <HAL_RCC_GetSysClockFreq+0x30>
 80020ca:	bf00      	nop
 80020cc:	40023800 	.word	0x40023800
 80020d0:	00f42400 	.word	0x00f42400
 80020d4:	007a1200 	.word	0x007a1200

080020d8 <HAL_RCC_ClockConfig>:
 80020d8:	b160      	cbz	r0, 80020f4 <HAL_RCC_ClockConfig+0x1c>
 80020da:	4a49      	ldr	r2, [pc, #292]	; (8002200 <HAL_RCC_ClockConfig+0x128>)
 80020dc:	6813      	ldr	r3, [r2, #0]
 80020de:	f003 030f 	and.w	r3, r3, #15
 80020e2:	428b      	cmp	r3, r1
 80020e4:	d208      	bcs.n	80020f8 <HAL_RCC_ClockConfig+0x20>
 80020e6:	b2cb      	uxtb	r3, r1
 80020e8:	7013      	strb	r3, [r2, #0]
 80020ea:	6813      	ldr	r3, [r2, #0]
 80020ec:	f003 030f 	and.w	r3, r3, #15
 80020f0:	428b      	cmp	r3, r1
 80020f2:	d001      	beq.n	80020f8 <HAL_RCC_ClockConfig+0x20>
 80020f4:	2001      	movs	r0, #1
 80020f6:	4770      	bx	lr
 80020f8:	6803      	ldr	r3, [r0, #0]
 80020fa:	e92d 41f0 	stmdb	sp!, {r4, r5, r6, r7, r8, lr}
 80020fe:	079d      	lsls	r5, r3, #30
 8002100:	d514      	bpl.n	800212c <HAL_RCC_ClockConfig+0x54>
 8002102:	075c      	lsls	r4, r3, #29
 8002104:	d504      	bpl.n	8002110 <HAL_RCC_ClockConfig+0x38>
 8002106:	4c3f      	ldr	r4, [pc, #252]	; (8002204 <HAL_RCC_ClockConfig+0x12c>)
 8002108:	68a2      	ldr	r2, [r4, #8]
 800210a:	f442 52e0 	orr.w	r2, r2, #7168	; 0x1c00
 800210e:	60a2      	str	r2, [r4, #8]
 8002110:	071a      	lsls	r2, r3, #28
 8002112:	d504      	bpl.n	800211e <HAL_RCC_ClockConfig+0x46>
 8002114:	4c3b      	ldr	r4, [pc, #236]	; (8002204 <HAL_RCC_ClockConfig+0x12c>)
 8002116:	68a2      	ldr	r2, [r4, #8]
 8002118:	f442 4260 	orr.w	r2, r2, #57344	; 0xe000
 800211c:	60a2      	str	r2, [r4, #8]
 800211e:	4c39      	ldr	r4, [pc, #228]	; (8002204 <HAL_RCC_ClockConfig+0x12c>)
 8002120:	6885      	ldr	r5, [r0, #8]
 8002122:	68a2      	ldr	r2, [r4, #8]
 8002124:	f022 02f0 	bic.w	r2, r2, #240	; 0xf0
 8002128:	432a      	orrs	r2, r5
 800212a:	60a2      	str	r2, [r4, #8]
 800212c:	07df      	lsls	r7, r3, #31
 800212e:	4604      	mov	r4, r0
 8002130:	460d      	mov	r5, r1
 8002132:	d522      	bpl.n	800217a <HAL_RCC_ClockConfig+0xa2>
 8002134:	6842      	ldr	r2, [r0, #4]
 8002136:	2a01      	cmp	r2, #1
 8002138:	d057      	beq.n	80021ea <HAL_RCC_ClockConfig+0x112>
 800213a:	1e93      	subs	r3, r2, #2
 800213c:	2b01      	cmp	r3, #1
 800213e:	4b31      	ldr	r3, [pc, #196]	; (8002204 <HAL_RCC_ClockConfig+0x12c>)
 8002140:	681b      	ldr	r3, [r3, #0]
 8002142:	d959      	bls.n	80021f8 <HAL_RCC_ClockConfig+0x120>
 8002144:	0799      	lsls	r1, r3, #30
 8002146:	d525      	bpl.n	8002194 <HAL_RCC_ClockConfig+0xbc>
 8002148:	4e2e      	ldr	r6, [pc, #184]	; (8002204 <HAL_RCC_ClockConfig+0x12c>)
 800214a:	68b3      	ldr	r3, [r6, #8]
 800214c:	f023 0303 	bic.w	r3, r3, #3
 8002150:	4313      	orrs	r3, r2
 8002152:	60b3      	str	r3, [r6, #8]
 8002154:	f7ff fc1c 	bl	8001990 <HAL_GetTick>
 8002158:	f241 3788 	movw	r7, #5000	; 0x1388
 800215c:	4680      	mov	r8, r0
 800215e:	e005      	b.n	800216c <HAL_RCC_ClockConfig+0x94>
 8002160:	f7ff fc16 	bl	8001990 <HAL_GetTick>
 8002164:	eba0 0008 	sub.w	r0, r0, r8
 8002168:	42b8      	cmp	r0, r7
 800216a:	d843      	bhi.n	80021f4 <HAL_RCC_ClockConfig+0x11c>
 800216c:	68b3      	ldr	r3, [r6, #8]
 800216e:	6862      	ldr	r2, [r4, #4]
 8002170:	f003 030c 	and.w	r3, r3, #12
 8002174:	ebb3 0f82 	cmp.w	r3, r2, lsl #2
 8002178:	d1f2      	bne.n	8002160 <HAL_RCC_ClockConfig+0x88>
 800217a:	4a21      	ldr	r2, [pc, #132]	; (8002200 <HAL_RCC_ClockConfig+0x128>)
 800217c:	6813      	ldr	r3, [r2, #0]
 800217e:	f003 030f 	and.w	r3, r3, #15
 8002182:	42ab      	cmp	r3, r5
 8002184:	d909      	bls.n	800219a <HAL_RCC_ClockConfig+0xc2>
 8002186:	b2eb      	uxtb	r3, r5
 8002188:	7013      	strb	r3, [r2, #0]
 800218a:	6813      	ldr	r3, [r2, #0]
 800218c:	f003 030f 	and.w	r3, r3, #15
 8002190:	42ab      	cmp	r3, r5
 8002192:	d002      	beq.n	800219a <HAL_RCC_ClockConfig+0xc2>
 8002194:	2001      	movs	r0, #1
 8002196:	e8bd 81f0 	ldmia.w	sp!, {r4, r5, r6, r7, r8, pc}
 800219a:	6823      	ldr	r3, [r4, #0]
 800219c:	075a      	lsls	r2, r3, #29
 800219e:	d506      	bpl.n	80021ae <HAL_RCC_ClockConfig+0xd6>
 80021a0:	4918      	ldr	r1, [pc, #96]	; (8002204 <HAL_RCC_ClockConfig+0x12c>)
 80021a2:	68e0      	ldr	r0, [r4, #12]
 80021a4:	688a      	ldr	r2, [r1, #8]
 80021a6:	f422 52e0 	bic.w	r2, r2, #7168	; 0x1c00
 80021aa:	4302      	orrs	r2, r0
 80021ac:	608a      	str	r2, [r1, #8]
 80021ae:	071b      	lsls	r3, r3, #28
 80021b0:	d412      	bmi.n	80021d8 <HAL_RCC_ClockConfig+0x100>
 80021b2:	f7ff ff5b 	bl	800206c <HAL_RCC_GetSysClockFreq>
 80021b6:	4b13      	ldr	r3, [pc, #76]	; (8002204 <HAL_RCC_ClockConfig+0x12c>)
 80021b8:	4c13      	ldr	r4, [pc, #76]	; (8002208 <HAL_RCC_ClockConfig+0x130>)
 80021ba:	689b      	ldr	r3, [r3, #8]
 80021bc:	4913      	ldr	r1, [pc, #76]	; (800220c <HAL_RCC_ClockConfig+0x134>)
 80021be:	4a14      	ldr	r2, [pc, #80]	; (8002210 <HAL_RCC_ClockConfig+0x138>)
 80021c0:	f3c3 1303 	ubfx	r3, r3, #4, #4
 80021c4:	5ce3      	ldrb	r3, [r4, r3]
 80021c6:	fa20 f303 	lsr.w	r3, r0, r3
 80021ca:	6808      	ldr	r0, [r1, #0]
 80021cc:	6013      	str	r3, [r2, #0]
 80021ce:	f7ff fb95 	bl	80018fc <HAL_InitTick>
 80021d2:	2000      	movs	r0, #0
 80021d4:	e8bd 81f0 	ldmia.w	sp!, {r4, r5, r6, r7, r8, pc}
 80021d8:	4a0a      	ldr	r2, [pc, #40]	; (8002204 <HAL_RCC_ClockConfig+0x12c>)
 80021da:	6921      	ldr	r1, [r4, #16]
 80021dc:	6893      	ldr	r3, [r2, #8]
 80021de:	f423 4360 	bic.w	r3, r3, #57344	; 0xe000
 80021e2:	ea43 03c1 	orr.w	r3, r3, r1, lsl #3
 80021e6:	6093      	str	r3, [r2, #8]
 80021e8:	e7e3      	b.n	80021b2 <HAL_RCC_ClockConfig+0xda>
 80021ea:	4b06      	ldr	r3, [pc, #24]	; (8002204 <HAL_RCC_ClockConfig+0x12c>)
 80021ec:	681b      	ldr	r3, [r3, #0]
 80021ee:	039e      	lsls	r6, r3, #14
 80021f0:	d4aa      	bmi.n	8002148 <HAL_RCC_ClockConfig+0x70>
 80021f2:	e7cf      	b.n	8002194 <HAL_RCC_ClockConfig+0xbc>
 80021f4:	2003      	movs	r0, #3
 80021f6:	e7ed      	b.n	80021d4 <HAL_RCC_ClockConfig+0xfc>
 80021f8:	0198      	lsls	r0, r3, #6
 80021fa:	d4a5      	bmi.n	8002148 <HAL_RCC_ClockConfig+0x70>
 80021fc:	e7ca      	b.n	8002194 <HAL_RCC_ClockConfig+0xbc>
 80021fe:	bf00      	nop
 8002200:	40023c00 	.word	0x40023c00
 8002204:	40023800 	.word	0x40023800
 8002208:	08005860 	.word	0x08005860
 800220c:	2000000c 	.word	0x2000000c
 8002210:	20000004 	.word	0x20000004

08002214 <SPI_AbortRx_ISR>:
 8002214:	4b13      	ldr	r3, [pc, #76]	; (8002264 <SPI_AbortRx_ISR+0x50>)
 8002216:	4a14      	ldr	r2, [pc, #80]	; (8002268 <SPI_AbortRx_ISR+0x54>)
 8002218:	681b      	ldr	r3, [r3, #0]
 800221a:	fba2 2303 	umull	r2, r3, r2, r3
 800221e:	b082      	sub	sp, #8
 8002220:	2264      	movs	r2, #100	; 0x64
 8002222:	0a5b      	lsrs	r3, r3, #9
 8002224:	fb02 f303 	mul.w	r3, r2, r3
 8002228:	9301      	str	r3, [sp, #4]
 800222a:	6802      	ldr	r2, [r0, #0]
 800222c:	e005      	b.n	800223a <SPI_AbortRx_ISR+0x26>
 800222e:	9b01      	ldr	r3, [sp, #4]
 8002230:	3b01      	subs	r3, #1
 8002232:	9301      	str	r3, [sp, #4]
 8002234:	6893      	ldr	r3, [r2, #8]
 8002236:	079b      	lsls	r3, r3, #30
 8002238:	d406      	bmi.n	8002248 <SPI_AbortRx_ISR+0x34>
 800223a:	9b01      	ldr	r3, [sp, #4]
 800223c:	2b00      	cmp	r3, #0
 800223e:	d1f6      	bne.n	800222e <SPI_AbortRx_ISR+0x1a>
 8002240:	6d43      	ldr	r3, [r0, #84]	; 0x54
 8002242:	f043 0340 	orr.w	r3, r3, #64	; 0x40
 8002246:	6543      	str	r3, [r0, #84]	; 0x54
 8002248:	6813      	ldr	r3, [r2, #0]
 800224a:	f023 0340 	bic.w	r3, r3, #64	; 0x40
 800224e:	6013      	str	r3, [r2, #0]
 8002250:	6853      	ldr	r3, [r2, #4]
 8002252:	f023 03e0 	bic.w	r3, r3, #224	; 0xe0
 8002256:	6053      	str	r3, [r2, #4]
 8002258:	68d2      	ldr	r2, [r2, #12]
 800225a:	2307      	movs	r3, #7
 800225c:	f880 3051 	strb.w	r3, [r0, #81]	; 0x51
 8002260:	b002      	add	sp, #8
 8002262:	4770      	bx	lr
 8002264:	20000004 	.word	0x20000004
 8002268:	057619f1 	.word	0x057619f1

0800226c <SPI_AbortTx_ISR>:
 800226c:	6803      	ldr	r3, [r0, #0]
 800226e:	685a      	ldr	r2, [r3, #4]
 8002270:	f022 0280 	bic.w	r2, r2, #128	; 0x80
 8002274:	605a      	str	r2, [r3, #4]
 8002276:	681a      	ldr	r2, [r3, #0]
 8002278:	2107      	movs	r1, #7
 800227a:	f022 0240 	bic.w	r2, r2, #64	; 0x40
 800227e:	601a      	str	r2, [r3, #0]
 8002280:	f880 1051 	strb.w	r1, [r0, #81]	; 0x51
 8002284:	4770      	bx	lr
 8002286:	bf00      	nop

08002288 <HAL_SPI_Init>:
 8002288:	2800      	cmp	r0, #0
 800228a:	d03b      	beq.n	8002304 <HAL_SPI_Init+0x7c>
 800228c:	f890 2051 	ldrb.w	r2, [r0, #81]	; 0x51
 8002290:	2300      	movs	r3, #0
 8002292:	b570      	push	{r4, r5, r6, lr}
 8002294:	f002 01ff 	and.w	r1, r2, #255	; 0xff
 8002298:	4604      	mov	r4, r0
 800229a:	6283      	str	r3, [r0, #40]	; 0x28
 800229c:	b362      	cbz	r2, 80022f8 <HAL_SPI_Init+0x70>
 800229e:	4618      	mov	r0, r3
 80022a0:	e9d4 3501 	ldrd	r3, r5, [r4, #4]
 80022a4:	e9d4 2103 	ldrd	r2, r1, [r4, #12]
 80022a8:	432b      	orrs	r3, r5
 80022aa:	4313      	orrs	r3, r2
 80022ac:	6962      	ldr	r2, [r4, #20]
 80022ae:	69e5      	ldr	r5, [r4, #28]
 80022b0:	6a26      	ldr	r6, [r4, #32]
 80022b2:	430b      	orrs	r3, r1
 80022b4:	4313      	orrs	r3, r2
 80022b6:	69a2      	ldr	r2, [r4, #24]
 80022b8:	6821      	ldr	r1, [r4, #0]
 80022ba:	432b      	orrs	r3, r5
 80022bc:	2502      	movs	r5, #2
 80022be:	f884 5051 	strb.w	r5, [r4, #81]	; 0x51
 80022c2:	4333      	orrs	r3, r6
 80022c4:	f402 7500 	and.w	r5, r2, #512	; 0x200
 80022c8:	680e      	ldr	r6, [r1, #0]
 80022ca:	432b      	orrs	r3, r5
 80022cc:	0c12      	lsrs	r2, r2, #16
 80022ce:	6a65      	ldr	r5, [r4, #36]	; 0x24
 80022d0:	f002 0204 	and.w	r2, r2, #4
 80022d4:	4303      	orrs	r3, r0
 80022d6:	432a      	orrs	r2, r5
 80022d8:	f026 0640 	bic.w	r6, r6, #64	; 0x40
 80022dc:	600e      	str	r6, [r1, #0]
 80022de:	600b      	str	r3, [r1, #0]
 80022e0:	604a      	str	r2, [r1, #4]
 80022e2:	69cb      	ldr	r3, [r1, #28]
 80022e4:	2200      	movs	r2, #0
 80022e6:	f423 6300 	bic.w	r3, r3, #2048	; 0x800
 80022ea:	2501      	movs	r5, #1
 80022ec:	61cb      	str	r3, [r1, #28]
 80022ee:	4610      	mov	r0, r2
 80022f0:	6562      	str	r2, [r4, #84]	; 0x54
 80022f2:	f884 5051 	strb.w	r5, [r4, #81]	; 0x51
 80022f6:	bd70      	pop	{r4, r5, r6, pc}
 80022f8:	f880 1050 	strb.w	r1, [r0, #80]	; 0x50
 80022fc:	f7ff f84c 	bl	8001398 <HAL_SPI_MspInit>
 8002300:	6aa0      	ldr	r0, [r4, #40]	; 0x28
 8002302:	e7cd      	b.n	80022a0 <HAL_SPI_Init+0x18>
 8002304:	2001      	movs	r0, #1
 8002306:	4770      	bx	lr

08002308 <HAL_SPI_Transmit_IT>:
 8002308:	4603      	mov	r3, r0
 800230a:	f890 0050 	ldrb.w	r0, [r0, #80]	; 0x50
 800230e:	2801      	cmp	r0, #1
 8002310:	d03c      	beq.n	800238c <HAL_SPI_Transmit_IT+0x84>
 8002312:	2001      	movs	r0, #1
 8002314:	f883 0050 	strb.w	r0, [r3, #80]	; 0x50
 8002318:	b101      	cbz	r1, 800231c <HAL_SPI_Transmit_IT+0x14>
 800231a:	b91a      	cbnz	r2, 8002324 <HAL_SPI_Transmit_IT+0x1c>
 800231c:	2200      	movs	r2, #0
 800231e:	f883 2050 	strb.w	r2, [r3, #80]	; 0x50
 8002322:	4770      	bx	lr
 8002324:	f893 0051 	ldrb.w	r0, [r3, #81]	; 0x51
 8002328:	2801      	cmp	r0, #1
 800232a:	d004      	beq.n	8002336 <HAL_SPI_Transmit_IT+0x2e>
 800232c:	2200      	movs	r2, #0
 800232e:	2002      	movs	r0, #2
 8002330:	f883 2050 	strb.w	r2, [r3, #80]	; 0x50
 8002334:	4770      	bx	lr
 8002336:	b470      	push	{r4, r5, r6}
 8002338:	4818      	ldr	r0, [pc, #96]	; (800239c <HAL_SPI_Transmit_IT+0x94>)
 800233a:	4c19      	ldr	r4, [pc, #100]	; (80023a0 <HAL_SPI_Transmit_IT+0x98>)
 800233c:	68de      	ldr	r6, [r3, #12]
 800233e:	6319      	str	r1, [r3, #48]	; 0x30
 8002340:	2e00      	cmp	r6, #0
 8002342:	bf18      	it	ne
 8002344:	4620      	movne	r0, r4
 8002346:	689c      	ldr	r4, [r3, #8]
 8002348:	869a      	strh	r2, [r3, #52]	; 0x34
 800234a:	2100      	movs	r1, #0
 800234c:	2503      	movs	r5, #3
 800234e:	f5b4 4f00 	cmp.w	r4, #32768	; 0x8000
 8002352:	f883 5051 	strb.w	r5, [r3, #81]	; 0x51
 8002356:	6399      	str	r1, [r3, #56]	; 0x38
 8002358:	6559      	str	r1, [r3, #84]	; 0x54
 800235a:	8799      	strh	r1, [r3, #60]	; 0x3c
 800235c:	86da      	strh	r2, [r3, #54]	; 0x36
 800235e:	6419      	str	r1, [r3, #64]	; 0x40
 8002360:	6458      	str	r0, [r3, #68]	; 0x44
 8002362:	87d9      	strh	r1, [r3, #62]	; 0x3e
 8002364:	681a      	ldr	r2, [r3, #0]
 8002366:	d103      	bne.n	8002370 <HAL_SPI_Transmit_IT+0x68>
 8002368:	6811      	ldr	r1, [r2, #0]
 800236a:	f441 4180 	orr.w	r1, r1, #16384	; 0x4000
 800236e:	6011      	str	r1, [r2, #0]
 8002370:	6851      	ldr	r1, [r2, #4]
 8002372:	f041 01a0 	orr.w	r1, r1, #160	; 0xa0
 8002376:	6051      	str	r1, [r2, #4]
 8002378:	6810      	ldr	r0, [r2, #0]
 800237a:	f010 0040 	ands.w	r0, r0, #64	; 0x40
 800237e:	d007      	beq.n	8002390 <HAL_SPI_Transmit_IT+0x88>
 8002380:	2000      	movs	r0, #0
 8002382:	2200      	movs	r2, #0
 8002384:	f883 2050 	strb.w	r2, [r3, #80]	; 0x50
 8002388:	bc70      	pop	{r4, r5, r6}
 800238a:	4770      	bx	lr
 800238c:	2002      	movs	r0, #2
 800238e:	4770      	bx	lr
 8002390:	6811      	ldr	r1, [r2, #0]
 8002392:	f041 0140 	orr.w	r1, r1, #64	; 0x40
 8002396:	6011      	str	r1, [r2, #0]
 8002398:	e7f3      	b.n	8002382 <HAL_SPI_Transmit_IT+0x7a>
 800239a:	bf00      	nop
 800239c:	080024dd 	.word	0x080024dd
 80023a0:	08002ab9 	.word	0x08002ab9

080023a4 <HAL_SPI_Receive_IT>:
 80023a4:	b4f0      	push	{r4, r5, r6, r7}
 80023a6:	6884      	ldr	r4, [r0, #8]
 80023a8:	4603      	mov	r3, r0
 80023aa:	f890 0050 	ldrb.w	r0, [r0, #80]	; 0x50
 80023ae:	b91c      	cbnz	r4, 80023b8 <HAL_SPI_Receive_IT+0x14>
 80023b0:	685d      	ldr	r5, [r3, #4]
 80023b2:	f5b5 7f82 	cmp.w	r5, #260	; 0x104
 80023b6:	d03b      	beq.n	8002430 <HAL_SPI_Receive_IT+0x8c>
 80023b8:	2801      	cmp	r0, #1
 80023ba:	d076      	beq.n	80024aa <HAL_SPI_Receive_IT+0x106>
 80023bc:	f893 0051 	ldrb.w	r0, [r3, #81]	; 0x51
 80023c0:	2501      	movs	r5, #1
 80023c2:	b2c0      	uxtb	r0, r0
 80023c4:	42a8      	cmp	r0, r5
 80023c6:	f883 5050 	strb.w	r5, [r3, #80]	; 0x50
 80023ca:	d005      	beq.n	80023d8 <HAL_SPI_Receive_IT+0x34>
 80023cc:	2002      	movs	r0, #2
 80023ce:	2200      	movs	r2, #0
 80023d0:	f883 2050 	strb.w	r2, [r3, #80]	; 0x50
 80023d4:	bcf0      	pop	{r4, r5, r6, r7}
 80023d6:	4770      	bx	lr
 80023d8:	2900      	cmp	r1, #0
 80023da:	d0f8      	beq.n	80023ce <HAL_SPI_Receive_IT+0x2a>
 80023dc:	2a00      	cmp	r2, #0
 80023de:	d0f6      	beq.n	80023ce <HAL_SPI_Receive_IT+0x2a>
 80023e0:	68df      	ldr	r7, [r3, #12]
 80023e2:	4835      	ldr	r0, [pc, #212]	; (80024b8 <HAL_SPI_Receive_IT+0x114>)
 80023e4:	4e35      	ldr	r6, [pc, #212]	; (80024bc <HAL_SPI_Receive_IT+0x118>)
 80023e6:	6399      	str	r1, [r3, #56]	; 0x38
 80023e8:	2f00      	cmp	r7, #0
 80023ea:	bf18      	it	ne
 80023ec:	4630      	movne	r0, r6
 80023ee:	2100      	movs	r1, #0
 80023f0:	2504      	movs	r5, #4
 80023f2:	f5b4 4f00 	cmp.w	r4, #32768	; 0x8000
 80023f6:	f883 5051 	strb.w	r5, [r3, #81]	; 0x51
 80023fa:	879a      	strh	r2, [r3, #60]	; 0x3c
 80023fc:	6559      	str	r1, [r3, #84]	; 0x54
 80023fe:	6319      	str	r1, [r3, #48]	; 0x30
 8002400:	87da      	strh	r2, [r3, #62]	; 0x3e
 8002402:	8699      	strh	r1, [r3, #52]	; 0x34
 8002404:	6459      	str	r1, [r3, #68]	; 0x44
 8002406:	6418      	str	r0, [r3, #64]	; 0x40
 8002408:	86d9      	strh	r1, [r3, #54]	; 0x36
 800240a:	681a      	ldr	r2, [r3, #0]
 800240c:	d103      	bne.n	8002416 <HAL_SPI_Receive_IT+0x72>
 800240e:	6811      	ldr	r1, [r2, #0]
 8002410:	f421 4180 	bic.w	r1, r1, #16384	; 0x4000
 8002414:	6011      	str	r1, [r2, #0]
 8002416:	6851      	ldr	r1, [r2, #4]
 8002418:	f041 0160 	orr.w	r1, r1, #96	; 0x60
 800241c:	6051      	str	r1, [r2, #4]
 800241e:	6810      	ldr	r0, [r2, #0]
 8002420:	f010 0040 	ands.w	r0, r0, #64	; 0x40
 8002424:	d144      	bne.n	80024b0 <HAL_SPI_Receive_IT+0x10c>
 8002426:	6811      	ldr	r1, [r2, #0]
 8002428:	f041 0140 	orr.w	r1, r1, #64	; 0x40
 800242c:	6011      	str	r1, [r2, #0]
 800242e:	e7ce      	b.n	80023ce <HAL_SPI_Receive_IT+0x2a>
 8002430:	2404      	movs	r4, #4
 8002432:	2801      	cmp	r0, #1
 8002434:	f883 4051 	strb.w	r4, [r3, #81]	; 0x51
 8002438:	d037      	beq.n	80024aa <HAL_SPI_Receive_IT+0x106>
 800243a:	f893 0051 	ldrb.w	r0, [r3, #81]	; 0x51
 800243e:	2401      	movs	r4, #1
 8002440:	b2c0      	uxtb	r0, r0
 8002442:	42a0      	cmp	r0, r4
 8002444:	f883 4050 	strb.w	r4, [r3, #80]	; 0x50
 8002448:	d001      	beq.n	800244e <HAL_SPI_Receive_IT+0xaa>
 800244a:	2804      	cmp	r0, #4
 800244c:	d1be      	bne.n	80023cc <HAL_SPI_Receive_IT+0x28>
 800244e:	2900      	cmp	r1, #0
 8002450:	d030      	beq.n	80024b4 <HAL_SPI_Receive_IT+0x110>
 8002452:	2a00      	cmp	r2, #0
 8002454:	d02e      	beq.n	80024b4 <HAL_SPI_Receive_IT+0x110>
 8002456:	f893 0051 	ldrb.w	r0, [r3, #81]	; 0x51
 800245a:	68de      	ldr	r6, [r3, #12]
 800245c:	681c      	ldr	r4, [r3, #0]
 800245e:	4f18      	ldr	r7, [pc, #96]	; (80024c0 <HAL_SPI_Receive_IT+0x11c>)
 8002460:	2804      	cmp	r0, #4
 8002462:	bf1c      	itt	ne
 8002464:	2005      	movne	r0, #5
 8002466:	f883 0051 	strbne.w	r0, [r3, #81]	; 0x51
 800246a:	2000      	movs	r0, #0
 800246c:	4286      	cmp	r6, r0
 800246e:	4e15      	ldr	r6, [pc, #84]	; (80024c4 <HAL_SPI_Receive_IT+0x120>)
 8002470:	6558      	str	r0, [r3, #84]	; 0x54
 8002472:	86da      	strh	r2, [r3, #54]	; 0x36
 8002474:	87da      	strh	r2, [r3, #62]	; 0x3e
 8002476:	6865      	ldr	r5, [r4, #4]
 8002478:	6319      	str	r1, [r3, #48]	; 0x30
 800247a:	bf18      	it	ne
 800247c:	4637      	movne	r7, r6
 800247e:	4e12      	ldr	r6, [pc, #72]	; (80024c8 <HAL_SPI_Receive_IT+0x124>)
 8002480:	6399      	str	r1, [r3, #56]	; 0x38
 8002482:	4912      	ldr	r1, [pc, #72]	; (80024cc <HAL_SPI_Receive_IT+0x128>)
 8002484:	869a      	strh	r2, [r3, #52]	; 0x34
 8002486:	bf08      	it	eq
 8002488:	4631      	moveq	r1, r6
 800248a:	f045 05e0 	orr.w	r5, r5, #224	; 0xe0
 800248e:	879a      	strh	r2, [r3, #60]	; 0x3c
 8002490:	e9c3 1710 	strd	r1, r7, [r3, #64]	; 0x40
 8002494:	6065      	str	r5, [r4, #4]
 8002496:	6822      	ldr	r2, [r4, #0]
 8002498:	f012 0240 	ands.w	r2, r2, #64	; 0x40
 800249c:	d197      	bne.n	80023ce <HAL_SPI_Receive_IT+0x2a>
 800249e:	6821      	ldr	r1, [r4, #0]
 80024a0:	f041 0140 	orr.w	r1, r1, #64	; 0x40
 80024a4:	4610      	mov	r0, r2
 80024a6:	6021      	str	r1, [r4, #0]
 80024a8:	e791      	b.n	80023ce <HAL_SPI_Receive_IT+0x2a>
 80024aa:	2002      	movs	r0, #2
 80024ac:	bcf0      	pop	{r4, r5, r6, r7}
 80024ae:	4770      	bx	lr
 80024b0:	2000      	movs	r0, #0
 80024b2:	e78c      	b.n	80023ce <HAL_SPI_Receive_IT+0x2a>
 80024b4:	2001      	movs	r0, #1
 80024b6:	e78a      	b.n	80023ce <HAL_SPI_Receive_IT+0x2a>
 80024b8:	08002621 	.word	0x08002621
 80024bc:	08002bf9 	.word	0x08002bf9
 80024c0:	08002889 	.word	0x08002889
 80024c4:	080028f1 	.word	0x080028f1
 80024c8:	080028bd 	.word	0x080028bd
 80024cc:	08002929 	.word	0x08002929

080024d0 <HAL_SPI_TxCpltCallback>:
 80024d0:	4770      	bx	lr
 80024d2:	bf00      	nop

080024d4 <HAL_SPI_TxRxCpltCallback>:
 80024d4:	4770      	bx	lr
 80024d6:	bf00      	nop

080024d8 <HAL_SPI_ErrorCallback>:
 80024d8:	4770      	bx	lr
 80024da:	bf00      	nop

080024dc <SPI_TxISR_8BIT>:
 80024dc:	6b02      	ldr	r2, [r0, #48]	; 0x30
 80024de:	6803      	ldr	r3, [r0, #0]
 80024e0:	7812      	ldrb	r2, [r2, #0]
 80024e2:	731a      	strb	r2, [r3, #12]
 80024e4:	8ec3      	ldrh	r3, [r0, #54]	; 0x36
 80024e6:	6b02      	ldr	r2, [r0, #48]	; 0x30
 80024e8:	3b01      	subs	r3, #1
 80024ea:	b29b      	uxth	r3, r3
 80024ec:	86c3      	strh	r3, [r0, #54]	; 0x36
 80024ee:	8ec3      	ldrh	r3, [r0, #54]	; 0x36
 80024f0:	3201      	adds	r2, #1
 80024f2:	b29b      	uxth	r3, r3
 80024f4:	6302      	str	r2, [r0, #48]	; 0x30
 80024f6:	b103      	cbz	r3, 80024fa <SPI_TxISR_8BIT+0x1e>
 80024f8:	4770      	bx	lr
 80024fa:	b570      	push	{r4, r5, r6, lr}
 80024fc:	4e45      	ldr	r6, [pc, #276]	; (8002614 <SPI_TxISR_8BIT+0x138>)
 80024fe:	4a46      	ldr	r2, [pc, #280]	; (8002618 <SPI_TxISR_8BIT+0x13c>)
 8002500:	6833      	ldr	r3, [r6, #0]
 8002502:	fba2 2303 	umull	r2, r3, r2, r3
 8002506:	b084      	sub	sp, #16
 8002508:	2264      	movs	r2, #100	; 0x64
 800250a:	0a5b      	lsrs	r3, r3, #9
 800250c:	fb02 f303 	mul.w	r3, r2, r3
 8002510:	4604      	mov	r4, r0
 8002512:	9301      	str	r3, [sp, #4]
 8002514:	f7ff fa3c 	bl	8001990 <HAL_GetTick>
 8002518:	6822      	ldr	r2, [r4, #0]
 800251a:	4605      	mov	r5, r0
 800251c:	e005      	b.n	800252a <SPI_TxISR_8BIT+0x4e>
 800251e:	9b01      	ldr	r3, [sp, #4]
 8002520:	3b01      	subs	r3, #1
 8002522:	9301      	str	r3, [sp, #4]
 8002524:	6893      	ldr	r3, [r2, #8]
 8002526:	0798      	lsls	r0, r3, #30
 8002528:	d406      	bmi.n	8002538 <SPI_TxISR_8BIT+0x5c>
 800252a:	9b01      	ldr	r3, [sp, #4]
 800252c:	2b00      	cmp	r3, #0
 800252e:	d1f6      	bne.n	800251e <SPI_TxISR_8BIT+0x42>
 8002530:	6d63      	ldr	r3, [r4, #84]	; 0x54
 8002532:	f043 0320 	orr.w	r3, r3, #32
 8002536:	6563      	str	r3, [r4, #84]	; 0x54
 8002538:	6833      	ldr	r3, [r6, #0]
 800253a:	4938      	ldr	r1, [pc, #224]	; (800261c <SPI_TxISR_8BIT+0x140>)
 800253c:	6850      	ldr	r0, [r2, #4]
 800253e:	6866      	ldr	r6, [r4, #4]
 8002540:	fba1 1303 	umull	r1, r3, r1, r3
 8002544:	0d5b      	lsrs	r3, r3, #21
 8002546:	f44f 717a 	mov.w	r1, #1000	; 0x3e8
 800254a:	fb01 f303 	mul.w	r3, r1, r3
 800254e:	f020 00a0 	bic.w	r0, r0, #160	; 0xa0
 8002552:	f5b6 7f82 	cmp.w	r6, #260	; 0x104
 8002556:	6050      	str	r0, [r2, #4]
 8002558:	9303      	str	r3, [sp, #12]
 800255a:	d106      	bne.n	800256a <SPI_TxISR_8BIT+0x8e>
 800255c:	e020      	b.n	80025a0 <SPI_TxISR_8BIT+0xc4>
 800255e:	9b03      	ldr	r3, [sp, #12]
 8002560:	3b01      	subs	r3, #1
 8002562:	9303      	str	r3, [sp, #12]
 8002564:	6893      	ldr	r3, [r2, #8]
 8002566:	061b      	lsls	r3, r3, #24
 8002568:	d502      	bpl.n	8002570 <SPI_TxISR_8BIT+0x94>
 800256a:	9b03      	ldr	r3, [sp, #12]
 800256c:	2b00      	cmp	r3, #0
 800256e:	d1f6      	bne.n	800255e <SPI_TxISR_8BIT+0x82>
 8002570:	68a3      	ldr	r3, [r4, #8]
 8002572:	b92b      	cbnz	r3, 8002580 <SPI_TxISR_8BIT+0xa4>
 8002574:	9302      	str	r3, [sp, #8]
 8002576:	68d3      	ldr	r3, [r2, #12]
 8002578:	9302      	str	r3, [sp, #8]
 800257a:	6893      	ldr	r3, [r2, #8]
 800257c:	9302      	str	r3, [sp, #8]
 800257e:	9b02      	ldr	r3, [sp, #8]
 8002580:	2301      	movs	r3, #1
 8002582:	f884 3051 	strb.w	r3, [r4, #81]	; 0x51
 8002586:	6d63      	ldr	r3, [r4, #84]	; 0x54
 8002588:	4620      	mov	r0, r4
 800258a:	b96b      	cbnz	r3, 80025a8 <SPI_TxISR_8BIT+0xcc>
 800258c:	f7ff ffa0 	bl	80024d0 <HAL_SPI_TxCpltCallback>
 8002590:	b004      	add	sp, #16
 8002592:	bd70      	pop	{r4, r5, r6, pc}
 8002594:	f7ff f9fc 	bl	8001990 <HAL_GetTick>
 8002598:	1b40      	subs	r0, r0, r5
 800259a:	2863      	cmp	r0, #99	; 0x63
 800259c:	6822      	ldr	r2, [r4, #0]
 800259e:	d807      	bhi.n	80025b0 <SPI_TxISR_8BIT+0xd4>
 80025a0:	6893      	ldr	r3, [r2, #8]
 80025a2:	0619      	lsls	r1, r3, #24
 80025a4:	d4f6      	bmi.n	8002594 <SPI_TxISR_8BIT+0xb8>
 80025a6:	e7e3      	b.n	8002570 <SPI_TxISR_8BIT+0x94>
 80025a8:	f7ff ff96 	bl	80024d8 <HAL_SPI_ErrorCallback>
 80025ac:	b004      	add	sp, #16
 80025ae:	bd70      	pop	{r4, r5, r6, pc}
 80025b0:	6860      	ldr	r0, [r4, #4]
 80025b2:	6851      	ldr	r1, [r2, #4]
 80025b4:	68a3      	ldr	r3, [r4, #8]
 80025b6:	f021 01e0 	bic.w	r1, r1, #224	; 0xe0
 80025ba:	f5b0 7f82 	cmp.w	r0, #260	; 0x104
 80025be:	6051      	str	r1, [r2, #4]
 80025c0:	d01c      	beq.n	80025fc <SPI_TxISR_8BIT+0x120>
 80025c2:	6aa1      	ldr	r1, [r4, #40]	; 0x28
 80025c4:	f5b1 5f00 	cmp.w	r1, #8192	; 0x2000
 80025c8:	d107      	bne.n	80025da <SPI_TxISR_8BIT+0xfe>
 80025ca:	6811      	ldr	r1, [r2, #0]
 80025cc:	f421 5100 	bic.w	r1, r1, #8192	; 0x2000
 80025d0:	6011      	str	r1, [r2, #0]
 80025d2:	6811      	ldr	r1, [r2, #0]
 80025d4:	f441 5100 	orr.w	r1, r1, #8192	; 0x2000
 80025d8:	6011      	str	r1, [r2, #0]
 80025da:	2101      	movs	r1, #1
 80025dc:	f884 1051 	strb.w	r1, [r4, #81]	; 0x51
 80025e0:	6d61      	ldr	r1, [r4, #84]	; 0x54
 80025e2:	f041 0120 	orr.w	r1, r1, #32
 80025e6:	6561      	str	r1, [r4, #84]	; 0x54
 80025e8:	6d61      	ldr	r1, [r4, #84]	; 0x54
 80025ea:	2000      	movs	r0, #0
 80025ec:	f041 0120 	orr.w	r1, r1, #32
 80025f0:	6561      	str	r1, [r4, #84]	; 0x54
 80025f2:	f884 0050 	strb.w	r0, [r4, #80]	; 0x50
 80025f6:	2b00      	cmp	r3, #0
 80025f8:	d1c2      	bne.n	8002580 <SPI_TxISR_8BIT+0xa4>
 80025fa:	e7bb      	b.n	8002574 <SPI_TxISR_8BIT+0x98>
 80025fc:	f5b3 4f00 	cmp.w	r3, #32768	; 0x8000
 8002600:	d002      	beq.n	8002608 <SPI_TxISR_8BIT+0x12c>
 8002602:	f5b3 6f80 	cmp.w	r3, #1024	; 0x400
 8002606:	d1dc      	bne.n	80025c2 <SPI_TxISR_8BIT+0xe6>
 8002608:	6811      	ldr	r1, [r2, #0]
 800260a:	f021 0140 	bic.w	r1, r1, #64	; 0x40
 800260e:	6011      	str	r1, [r2, #0]
 8002610:	e7d7      	b.n	80025c2 <SPI_TxISR_8BIT+0xe6>
 8002612:	bf00      	nop
 8002614:	20000004 	.word	0x20000004
 8002618:	057619f1 	.word	0x057619f1
 800261c:	165e9f81 	.word	0x165e9f81

08002620 <SPI_RxISR_8BIT>:
 8002620:	6802      	ldr	r2, [r0, #0]
 8002622:	6b83      	ldr	r3, [r0, #56]	; 0x38
 8002624:	7b12      	ldrb	r2, [r2, #12]
 8002626:	701a      	strb	r2, [r3, #0]
 8002628:	8fc3      	ldrh	r3, [r0, #62]	; 0x3e
 800262a:	6b82      	ldr	r2, [r0, #56]	; 0x38
 800262c:	3b01      	subs	r3, #1
 800262e:	b29b      	uxth	r3, r3
 8002630:	87c3      	strh	r3, [r0, #62]	; 0x3e
 8002632:	8fc3      	ldrh	r3, [r0, #62]	; 0x3e
 8002634:	3201      	adds	r2, #1
 8002636:	b29b      	uxth	r3, r3
 8002638:	6382      	str	r2, [r0, #56]	; 0x38
 800263a:	b103      	cbz	r3, 800263e <SPI_RxISR_8BIT+0x1e>
 800263c:	4770      	bx	lr
 800263e:	b530      	push	{r4, r5, lr}
 8002640:	6802      	ldr	r2, [r0, #0]
 8002642:	6853      	ldr	r3, [r2, #4]
 8002644:	4604      	mov	r4, r0
 8002646:	f023 0360 	bic.w	r3, r3, #96	; 0x60
 800264a:	6053      	str	r3, [r2, #4]
 800264c:	b083      	sub	sp, #12
 800264e:	f7ff f99f 	bl	8001990 <HAL_GetTick>
 8002652:	6863      	ldr	r3, [r4, #4]
 8002654:	f5b3 7f82 	cmp.w	r3, #260	; 0x104
 8002658:	4605      	mov	r5, r0
 800265a:	d105      	bne.n	8002668 <SPI_RxISR_8BIT+0x48>
 800265c:	e01e      	b.n	800269c <SPI_RxISR_8BIT+0x7c>
 800265e:	f7ff f997 	bl	8001990 <HAL_GetTick>
 8002662:	1b40      	subs	r0, r0, r5
 8002664:	2863      	cmp	r0, #99	; 0x63
 8002666:	d82c      	bhi.n	80026c2 <SPI_RxISR_8BIT+0xa2>
 8002668:	6823      	ldr	r3, [r4, #0]
 800266a:	689a      	ldr	r2, [r3, #8]
 800266c:	07d2      	lsls	r2, r2, #31
 800266e:	d4f6      	bmi.n	800265e <SPI_RxISR_8BIT+0x3e>
 8002670:	68a2      	ldr	r2, [r4, #8]
 8002672:	b92a      	cbnz	r2, 8002680 <SPI_RxISR_8BIT+0x60>
 8002674:	9201      	str	r2, [sp, #4]
 8002676:	68da      	ldr	r2, [r3, #12]
 8002678:	9201      	str	r2, [sp, #4]
 800267a:	689b      	ldr	r3, [r3, #8]
 800267c:	9301      	str	r3, [sp, #4]
 800267e:	9b01      	ldr	r3, [sp, #4]
 8002680:	2301      	movs	r3, #1
 8002682:	f884 3051 	strb.w	r3, [r4, #81]	; 0x51
 8002686:	6d63      	ldr	r3, [r4, #84]	; 0x54
 8002688:	4620      	mov	r0, r4
 800268a:	b11b      	cbz	r3, 8002694 <SPI_RxISR_8BIT+0x74>
 800268c:	f7ff ff24 	bl	80024d8 <HAL_SPI_ErrorCallback>
 8002690:	b003      	add	sp, #12
 8002692:	bd30      	pop	{r4, r5, pc}
 8002694:	f7fe fe34 	bl	8001300 <HAL_SPI_RxCpltCallback>
 8002698:	b003      	add	sp, #12
 800269a:	bd30      	pop	{r4, r5, pc}
 800269c:	68a2      	ldr	r2, [r4, #8]
 800269e:	6823      	ldr	r3, [r4, #0]
 80026a0:	f5b2 4f00 	cmp.w	r2, #32768	; 0x8000
 80026a4:	d03d      	beq.n	8002722 <SPI_RxISR_8BIT+0x102>
 80026a6:	f5b2 6f80 	cmp.w	r2, #1024	; 0x400
 80026aa:	d106      	bne.n	80026ba <SPI_RxISR_8BIT+0x9a>
 80026ac:	e03e      	b.n	800272c <SPI_RxISR_8BIT+0x10c>
 80026ae:	f7ff f96f 	bl	8001990 <HAL_GetTick>
 80026b2:	1b40      	subs	r0, r0, r5
 80026b4:	2863      	cmp	r0, #99	; 0x63
 80026b6:	6823      	ldr	r3, [r4, #0]
 80026b8:	d804      	bhi.n	80026c4 <SPI_RxISR_8BIT+0xa4>
 80026ba:	689a      	ldr	r2, [r3, #8]
 80026bc:	0610      	lsls	r0, r2, #24
 80026be:	d4f6      	bmi.n	80026ae <SPI_RxISR_8BIT+0x8e>
 80026c0:	e7d6      	b.n	8002670 <SPI_RxISR_8BIT+0x50>
 80026c2:	6823      	ldr	r3, [r4, #0]
 80026c4:	6860      	ldr	r0, [r4, #4]
 80026c6:	6859      	ldr	r1, [r3, #4]
 80026c8:	68a2      	ldr	r2, [r4, #8]
 80026ca:	f021 01e0 	bic.w	r1, r1, #224	; 0xe0
 80026ce:	f5b0 7f82 	cmp.w	r0, #260	; 0x104
 80026d2:	6059      	str	r1, [r3, #4]
 80026d4:	d01a      	beq.n	800270c <SPI_RxISR_8BIT+0xec>
 80026d6:	6aa1      	ldr	r1, [r4, #40]	; 0x28
 80026d8:	f5b1 5f00 	cmp.w	r1, #8192	; 0x2000
 80026dc:	d107      	bne.n	80026ee <SPI_RxISR_8BIT+0xce>
 80026de:	6819      	ldr	r1, [r3, #0]
 80026e0:	f421 5100 	bic.w	r1, r1, #8192	; 0x2000
 80026e4:	6019      	str	r1, [r3, #0]
 80026e6:	6819      	ldr	r1, [r3, #0]
 80026e8:	f441 5100 	orr.w	r1, r1, #8192	; 0x2000
 80026ec:	6019      	str	r1, [r3, #0]
 80026ee:	2101      	movs	r1, #1
 80026f0:	f884 1051 	strb.w	r1, [r4, #81]	; 0x51
 80026f4:	6d61      	ldr	r1, [r4, #84]	; 0x54
 80026f6:	f041 0120 	orr.w	r1, r1, #32
 80026fa:	6561      	str	r1, [r4, #84]	; 0x54
 80026fc:	6d61      	ldr	r1, [r4, #84]	; 0x54
 80026fe:	2000      	movs	r0, #0
 8002700:	f041 0120 	orr.w	r1, r1, #32
 8002704:	f884 0050 	strb.w	r0, [r4, #80]	; 0x50
 8002708:	6561      	str	r1, [r4, #84]	; 0x54
 800270a:	e7b2      	b.n	8002672 <SPI_RxISR_8BIT+0x52>
 800270c:	f5b2 4f00 	cmp.w	r2, #32768	; 0x8000
 8002710:	d002      	beq.n	8002718 <SPI_RxISR_8BIT+0xf8>
 8002712:	f5b2 6f80 	cmp.w	r2, #1024	; 0x400
 8002716:	d1de      	bne.n	80026d6 <SPI_RxISR_8BIT+0xb6>
 8002718:	6819      	ldr	r1, [r3, #0]
 800271a:	f021 0140 	bic.w	r1, r1, #64	; 0x40
 800271e:	6019      	str	r1, [r3, #0]
 8002720:	e7d9      	b.n	80026d6 <SPI_RxISR_8BIT+0xb6>
 8002722:	681a      	ldr	r2, [r3, #0]
 8002724:	f022 0240 	bic.w	r2, r2, #64	; 0x40
 8002728:	601a      	str	r2, [r3, #0]
 800272a:	e7c6      	b.n	80026ba <SPI_RxISR_8BIT+0x9a>
 800272c:	681a      	ldr	r2, [r3, #0]
 800272e:	f022 0240 	bic.w	r2, r2, #64	; 0x40
 8002732:	601a      	str	r2, [r3, #0]
 8002734:	e005      	b.n	8002742 <SPI_RxISR_8BIT+0x122>
 8002736:	f7ff f92b 	bl	8001990 <HAL_GetTick>
 800273a:	1b40      	subs	r0, r0, r5
 800273c:	2863      	cmp	r0, #99	; 0x63
 800273e:	6823      	ldr	r3, [r4, #0]
 8002740:	d8c0      	bhi.n	80026c4 <SPI_RxISR_8BIT+0xa4>
 8002742:	689a      	ldr	r2, [r3, #8]
 8002744:	07d1      	lsls	r1, r2, #31
 8002746:	d4f6      	bmi.n	8002736 <SPI_RxISR_8BIT+0x116>
 8002748:	e792      	b.n	8002670 <SPI_RxISR_8BIT+0x50>
 800274a:	bf00      	nop

0800274c <SPI_CloseRxTx_ISR>:
 800274c:	b570      	push	{r4, r5, r6, lr}
 800274e:	4e4b      	ldr	r6, [pc, #300]	; (800287c <SPI_CloseRxTx_ISR+0x130>)
 8002750:	4a4b      	ldr	r2, [pc, #300]	; (8002880 <SPI_CloseRxTx_ISR+0x134>)
 8002752:	6833      	ldr	r3, [r6, #0]
 8002754:	fba2 2303 	umull	r2, r3, r2, r3
 8002758:	b084      	sub	sp, #16
 800275a:	2264      	movs	r2, #100	; 0x64
 800275c:	4604      	mov	r4, r0
 800275e:	0a5b      	lsrs	r3, r3, #9
 8002760:	fb02 f303 	mul.w	r3, r2, r3
 8002764:	9301      	str	r3, [sp, #4]
 8002766:	f7ff f913 	bl	8001990 <HAL_GetTick>
 800276a:	6822      	ldr	r2, [r4, #0]
 800276c:	6853      	ldr	r3, [r2, #4]
 800276e:	f023 0320 	bic.w	r3, r3, #32
 8002772:	4605      	mov	r5, r0
 8002774:	6053      	str	r3, [r2, #4]
 8002776:	e005      	b.n	8002784 <SPI_CloseRxTx_ISR+0x38>
 8002778:	9b01      	ldr	r3, [sp, #4]
 800277a:	3b01      	subs	r3, #1
 800277c:	9301      	str	r3, [sp, #4]
 800277e:	6893      	ldr	r3, [r2, #8]
 8002780:	0798      	lsls	r0, r3, #30
 8002782:	d406      	bmi.n	8002792 <SPI_CloseRxTx_ISR+0x46>
 8002784:	9b01      	ldr	r3, [sp, #4]
 8002786:	2b00      	cmp	r3, #0
 8002788:	d1f6      	bne.n	8002778 <SPI_CloseRxTx_ISR+0x2c>
 800278a:	6d63      	ldr	r3, [r4, #84]	; 0x54
 800278c:	f043 0320 	orr.w	r3, r3, #32
 8002790:	6563      	str	r3, [r4, #84]	; 0x54
 8002792:	483c      	ldr	r0, [pc, #240]	; (8002884 <SPI_CloseRxTx_ISR+0x138>)
 8002794:	6833      	ldr	r3, [r6, #0]
 8002796:	6861      	ldr	r1, [r4, #4]
 8002798:	fba0 0303 	umull	r0, r3, r0, r3
 800279c:	0d5b      	lsrs	r3, r3, #21
 800279e:	f44f 707a 	mov.w	r0, #1000	; 0x3e8
 80027a2:	fb00 f303 	mul.w	r3, r0, r3
 80027a6:	f5b1 7f82 	cmp.w	r1, #260	; 0x104
 80027aa:	9303      	str	r3, [sp, #12]
 80027ac:	d106      	bne.n	80027bc <SPI_CloseRxTx_ISR+0x70>
 80027ae:	e025      	b.n	80027fc <SPI_CloseRxTx_ISR+0xb0>
 80027b0:	9b03      	ldr	r3, [sp, #12]
 80027b2:	3b01      	subs	r3, #1
 80027b4:	9303      	str	r3, [sp, #12]
 80027b6:	6893      	ldr	r3, [r2, #8]
 80027b8:	061b      	lsls	r3, r3, #24
 80027ba:	d502      	bpl.n	80027c2 <SPI_CloseRxTx_ISR+0x76>
 80027bc:	9b03      	ldr	r3, [sp, #12]
 80027be:	2b00      	cmp	r3, #0
 80027c0:	d1f6      	bne.n	80027b0 <SPI_CloseRxTx_ISR+0x64>
 80027c2:	68a3      	ldr	r3, [r4, #8]
 80027c4:	b92b      	cbnz	r3, 80027d2 <SPI_CloseRxTx_ISR+0x86>
 80027c6:	9302      	str	r3, [sp, #8]
 80027c8:	68d3      	ldr	r3, [r2, #12]
 80027ca:	9302      	str	r3, [sp, #8]
 80027cc:	6893      	ldr	r3, [r2, #8]
 80027ce:	9302      	str	r3, [sp, #8]
 80027d0:	9b02      	ldr	r3, [sp, #8]
 80027d2:	6d63      	ldr	r3, [r4, #84]	; 0x54
 80027d4:	b9db      	cbnz	r3, 800280e <SPI_CloseRxTx_ISR+0xc2>
 80027d6:	f894 3051 	ldrb.w	r3, [r4, #81]	; 0x51
 80027da:	2b04      	cmp	r3, #4
 80027dc:	f04f 0301 	mov.w	r3, #1
 80027e0:	f884 3051 	strb.w	r3, [r4, #81]	; 0x51
 80027e4:	4620      	mov	r0, r4
 80027e6:	d00e      	beq.n	8002806 <SPI_CloseRxTx_ISR+0xba>
 80027e8:	f7ff fe74 	bl	80024d4 <HAL_SPI_TxRxCpltCallback>
 80027ec:	b004      	add	sp, #16
 80027ee:	bd70      	pop	{r4, r5, r6, pc}
 80027f0:	f7ff f8ce 	bl	8001990 <HAL_GetTick>
 80027f4:	1b40      	subs	r0, r0, r5
 80027f6:	2863      	cmp	r0, #99	; 0x63
 80027f8:	6822      	ldr	r2, [r4, #0]
 80027fa:	d810      	bhi.n	800281e <SPI_CloseRxTx_ISR+0xd2>
 80027fc:	6893      	ldr	r3, [r2, #8]
 80027fe:	0619      	lsls	r1, r3, #24
 8002800:	d4f6      	bmi.n	80027f0 <SPI_CloseRxTx_ISR+0xa4>
 8002802:	68a3      	ldr	r3, [r4, #8]
 8002804:	e7de      	b.n	80027c4 <SPI_CloseRxTx_ISR+0x78>
 8002806:	f7fe fd7b 	bl	8001300 <HAL_SPI_RxCpltCallback>
 800280a:	b004      	add	sp, #16
 800280c:	bd70      	pop	{r4, r5, r6, pc}
 800280e:	2301      	movs	r3, #1
 8002810:	f884 3051 	strb.w	r3, [r4, #81]	; 0x51
 8002814:	4620      	mov	r0, r4
 8002816:	f7ff fe5f 	bl	80024d8 <HAL_SPI_ErrorCallback>
 800281a:	b004      	add	sp, #16
 800281c:	bd70      	pop	{r4, r5, r6, pc}
 800281e:	6860      	ldr	r0, [r4, #4]
 8002820:	6851      	ldr	r1, [r2, #4]
 8002822:	68a3      	ldr	r3, [r4, #8]
 8002824:	f021 01e0 	bic.w	r1, r1, #224	; 0xe0
 8002828:	f5b0 7f82 	cmp.w	r0, #260	; 0x104
 800282c:	6051      	str	r1, [r2, #4]
 800282e:	d01a      	beq.n	8002866 <SPI_CloseRxTx_ISR+0x11a>
 8002830:	6aa1      	ldr	r1, [r4, #40]	; 0x28
 8002832:	f5b1 5f00 	cmp.w	r1, #8192	; 0x2000
 8002836:	d107      	bne.n	8002848 <SPI_CloseRxTx_ISR+0xfc>
 8002838:	6811      	ldr	r1, [r2, #0]
 800283a:	f421 5100 	bic.w	r1, r1, #8192	; 0x2000
 800283e:	6011      	str	r1, [r2, #0]
 8002840:	6811      	ldr	r1, [r2, #0]
 8002842:	f441 5100 	orr.w	r1, r1, #8192	; 0x2000
 8002846:	6011      	str	r1, [r2, #0]
 8002848:	2101      	movs	r1, #1
 800284a:	f884 1051 	strb.w	r1, [r4, #81]	; 0x51
 800284e:	6d61      	ldr	r1, [r4, #84]	; 0x54
 8002850:	f041 0120 	orr.w	r1, r1, #32
 8002854:	6561      	str	r1, [r4, #84]	; 0x54
 8002856:	6d61      	ldr	r1, [r4, #84]	; 0x54
 8002858:	2000      	movs	r0, #0
 800285a:	f041 0120 	orr.w	r1, r1, #32
 800285e:	6561      	str	r1, [r4, #84]	; 0x54
 8002860:	f884 0050 	strb.w	r0, [r4, #80]	; 0x50
 8002864:	e7ae      	b.n	80027c4 <SPI_CloseRxTx_ISR+0x78>
 8002866:	f5b3 4f00 	cmp.w	r3, #32768	; 0x8000
 800286a:	d002      	beq.n	8002872 <SPI_CloseRxTx_ISR+0x126>
 800286c:	f5b3 6f80 	cmp.w	r3, #1024	; 0x400
 8002870:	d1de      	bne.n	8002830 <SPI_CloseRxTx_ISR+0xe4>
 8002872:	6811      	ldr	r1, [r2, #0]
 8002874:	f021 0140 	bic.w	r1, r1, #64	; 0x40
 8002878:	6011      	str	r1, [r2, #0]
 800287a:	e7d9      	b.n	8002830 <SPI_CloseRxTx_ISR+0xe4>
 800287c:	20000004 	.word	0x20000004
 8002880:	057619f1 	.word	0x057619f1
 8002884:	165e9f81 	.word	0x165e9f81

08002888 <SPI_2linesTxISR_8BIT>:
 8002888:	6b01      	ldr	r1, [r0, #48]	; 0x30
 800288a:	6802      	ldr	r2, [r0, #0]
 800288c:	7809      	ldrb	r1, [r1, #0]
 800288e:	7311      	strb	r1, [r2, #12]
 8002890:	8ec2      	ldrh	r2, [r0, #54]	; 0x36
 8002892:	6b01      	ldr	r1, [r0, #48]	; 0x30
 8002894:	3a01      	subs	r2, #1
 8002896:	b292      	uxth	r2, r2
 8002898:	86c2      	strh	r2, [r0, #54]	; 0x36
 800289a:	8ec2      	ldrh	r2, [r0, #54]	; 0x36
 800289c:	3101      	adds	r1, #1
 800289e:	b292      	uxth	r2, r2
 80028a0:	6301      	str	r1, [r0, #48]	; 0x30
 80028a2:	b93a      	cbnz	r2, 80028b4 <SPI_2linesTxISR_8BIT+0x2c>
 80028a4:	6801      	ldr	r1, [r0, #0]
 80028a6:	684a      	ldr	r2, [r1, #4]
 80028a8:	f022 0280 	bic.w	r2, r2, #128	; 0x80
 80028ac:	604a      	str	r2, [r1, #4]
 80028ae:	8fc3      	ldrh	r3, [r0, #62]	; 0x3e
 80028b0:	b29b      	uxth	r3, r3
 80028b2:	b103      	cbz	r3, 80028b6 <SPI_2linesTxISR_8BIT+0x2e>
 80028b4:	4770      	bx	lr
 80028b6:	f7ff bf49 	b.w	800274c <SPI_CloseRxTx_ISR>
 80028ba:	bf00      	nop

080028bc <SPI_2linesRxISR_8BIT>:
 80028bc:	6801      	ldr	r1, [r0, #0]
 80028be:	6b82      	ldr	r2, [r0, #56]	; 0x38
 80028c0:	7b09      	ldrb	r1, [r1, #12]
 80028c2:	7011      	strb	r1, [r2, #0]
 80028c4:	8fc2      	ldrh	r2, [r0, #62]	; 0x3e
 80028c6:	6b81      	ldr	r1, [r0, #56]	; 0x38
 80028c8:	3a01      	subs	r2, #1
 80028ca:	b292      	uxth	r2, r2
 80028cc:	87c2      	strh	r2, [r0, #62]	; 0x3e
 80028ce:	8fc2      	ldrh	r2, [r0, #62]	; 0x3e
 80028d0:	3101      	adds	r1, #1
 80028d2:	b292      	uxth	r2, r2
 80028d4:	6381      	str	r1, [r0, #56]	; 0x38
 80028d6:	b93a      	cbnz	r2, 80028e8 <SPI_2linesRxISR_8BIT+0x2c>
 80028d8:	6801      	ldr	r1, [r0, #0]
 80028da:	684a      	ldr	r2, [r1, #4]
 80028dc:	f022 0260 	bic.w	r2, r2, #96	; 0x60
 80028e0:	604a      	str	r2, [r1, #4]
 80028e2:	8ec3      	ldrh	r3, [r0, #54]	; 0x36
 80028e4:	b29b      	uxth	r3, r3
 80028e6:	b103      	cbz	r3, 80028ea <SPI_2linesRxISR_8BIT+0x2e>
 80028e8:	4770      	bx	lr
 80028ea:	f7ff bf2f 	b.w	800274c <SPI_CloseRxTx_ISR>
 80028ee:	bf00      	nop

080028f0 <SPI_2linesTxISR_16BIT>:
 80028f0:	6b01      	ldr	r1, [r0, #48]	; 0x30
 80028f2:	b410      	push	{r4}
 80028f4:	6804      	ldr	r4, [r0, #0]
 80028f6:	f831 2b02 	ldrh.w	r2, [r1], #2
 80028fa:	60e2      	str	r2, [r4, #12]
 80028fc:	8ec2      	ldrh	r2, [r0, #54]	; 0x36
 80028fe:	6301      	str	r1, [r0, #48]	; 0x30
 8002900:	3a01      	subs	r2, #1
 8002902:	b292      	uxth	r2, r2
 8002904:	86c2      	strh	r2, [r0, #54]	; 0x36
 8002906:	8ec2      	ldrh	r2, [r0, #54]	; 0x36
 8002908:	b292      	uxth	r2, r2
 800290a:	b932      	cbnz	r2, 800291a <SPI_2linesTxISR_16BIT+0x2a>
 800290c:	6862      	ldr	r2, [r4, #4]
 800290e:	f022 0280 	bic.w	r2, r2, #128	; 0x80
 8002912:	6062      	str	r2, [r4, #4]
 8002914:	8fc3      	ldrh	r3, [r0, #62]	; 0x3e
 8002916:	b29b      	uxth	r3, r3
 8002918:	b113      	cbz	r3, 8002920 <SPI_2linesTxISR_16BIT+0x30>
 800291a:	f85d 4b04 	ldr.w	r4, [sp], #4
 800291e:	4770      	bx	lr
 8002920:	f85d 4b04 	ldr.w	r4, [sp], #4
 8002924:	f7ff bf12 	b.w	800274c <SPI_CloseRxTx_ISR>

08002928 <SPI_2linesRxISR_16BIT>:
 8002928:	b410      	push	{r4}
 800292a:	6804      	ldr	r4, [r0, #0]
 800292c:	6b81      	ldr	r1, [r0, #56]	; 0x38
 800292e:	68e2      	ldr	r2, [r4, #12]
 8002930:	f821 2b02 	strh.w	r2, [r1], #2
 8002934:	8fc2      	ldrh	r2, [r0, #62]	; 0x3e
 8002936:	6381      	str	r1, [r0, #56]	; 0x38
 8002938:	3a01      	subs	r2, #1
 800293a:	b292      	uxth	r2, r2
 800293c:	87c2      	strh	r2, [r0, #62]	; 0x3e
 800293e:	8fc2      	ldrh	r2, [r0, #62]	; 0x3e
 8002940:	b292      	uxth	r2, r2
 8002942:	b932      	cbnz	r2, 8002952 <SPI_2linesRxISR_16BIT+0x2a>
 8002944:	6862      	ldr	r2, [r4, #4]
 8002946:	f022 0240 	bic.w	r2, r2, #64	; 0x40
 800294a:	6062      	str	r2, [r4, #4]
 800294c:	8ec3      	ldrh	r3, [r0, #54]	; 0x36
 800294e:	b29b      	uxth	r3, r3
 8002950:	b113      	cbz	r3, 8002958 <SPI_2linesRxISR_16BIT+0x30>
 8002952:	f85d 4b04 	ldr.w	r4, [sp], #4
 8002956:	4770      	bx	lr
 8002958:	f85d 4b04 	ldr.w	r4, [sp], #4
 800295c:	f7ff bef6 	b.w	800274c <SPI_CloseRxTx_ISR>

08002960 <HAL_SPI_IRQHandler>:
 8002960:	b530      	push	{r4, r5, lr}
 8002962:	6801      	ldr	r1, [r0, #0]
 8002964:	684d      	ldr	r5, [r1, #4]
 8002966:	688b      	ldr	r3, [r1, #8]
 8002968:	f3c3 1480 	ubfx	r4, r3, #6, #1
 800296c:	b085      	sub	sp, #20
 800296e:	4602      	mov	r2, r0
 8002970:	b954      	cbnz	r4, 8002988 <HAL_SPI_IRQHandler+0x28>
 8002972:	f013 0f01 	tst.w	r3, #1
 8002976:	d007      	beq.n	8002988 <HAL_SPI_IRQHandler+0x28>
 8002978:	f015 0f40 	tst.w	r5, #64	; 0x40
 800297c:	d004      	beq.n	8002988 <HAL_SPI_IRQHandler+0x28>
 800297e:	6c03      	ldr	r3, [r0, #64]	; 0x40
 8002980:	b005      	add	sp, #20
 8002982:	e8bd 4030 	ldmia.w	sp!, {r4, r5, lr}
 8002986:	4718      	bx	r3
 8002988:	0798      	lsls	r0, r3, #30
 800298a:	d507      	bpl.n	800299c <HAL_SPI_IRQHandler+0x3c>
 800298c:	0628      	lsls	r0, r5, #24
 800298e:	d505      	bpl.n	800299c <HAL_SPI_IRQHandler+0x3c>
 8002990:	6c53      	ldr	r3, [r2, #68]	; 0x44
 8002992:	4610      	mov	r0, r2
 8002994:	b005      	add	sp, #20
 8002996:	e8bd 4030 	ldmia.w	sp!, {r4, r5, lr}
 800299a:	4718      	bx	r3
 800299c:	f3c3 1040 	ubfx	r0, r3, #5, #1
 80029a0:	2800      	cmp	r0, #0
 80029a2:	d13d      	bne.n	8002a20 <HAL_SPI_IRQHandler+0xc0>
 80029a4:	2c00      	cmp	r4, #0
 80029a6:	d04e      	beq.n	8002a46 <HAL_SPI_IRQHandler+0xe6>
 80029a8:	06ac      	lsls	r4, r5, #26
 80029aa:	d537      	bpl.n	8002a1c <HAL_SPI_IRQHandler+0xbc>
 80029ac:	f892 4051 	ldrb.w	r4, [r2, #81]	; 0x51
 80029b0:	2c03      	cmp	r4, #3
 80029b2:	d05a      	beq.n	8002a6a <HAL_SPI_IRQHandler+0x10a>
 80029b4:	6d54      	ldr	r4, [r2, #84]	; 0x54
 80029b6:	f044 0404 	orr.w	r4, r4, #4
 80029ba:	6554      	str	r4, [r2, #84]	; 0x54
 80029bc:	9000      	str	r0, [sp, #0]
 80029be:	68c8      	ldr	r0, [r1, #12]
 80029c0:	9000      	str	r0, [sp, #0]
 80029c2:	6888      	ldr	r0, [r1, #8]
 80029c4:	9000      	str	r0, [sp, #0]
 80029c6:	9800      	ldr	r0, [sp, #0]
 80029c8:	f3c3 2300 	ubfx	r3, r3, #8, #1
 80029cc:	2b00      	cmp	r3, #0
 80029ce:	d13e      	bne.n	8002a4e <HAL_SPI_IRQHandler+0xee>
 80029d0:	6d53      	ldr	r3, [r2, #84]	; 0x54
 80029d2:	b31b      	cbz	r3, 8002a1c <HAL_SPI_IRQHandler+0xbc>
 80029d4:	684b      	ldr	r3, [r1, #4]
 80029d6:	4614      	mov	r4, r2
 80029d8:	f023 03e0 	bic.w	r3, r3, #224	; 0xe0
 80029dc:	2201      	movs	r2, #1
 80029de:	07ad      	lsls	r5, r5, #30
 80029e0:	604b      	str	r3, [r1, #4]
 80029e2:	f884 2051 	strb.w	r2, [r4, #81]	; 0x51
 80029e6:	d048      	beq.n	8002a7a <HAL_SPI_IRQHandler+0x11a>
 80029e8:	684b      	ldr	r3, [r1, #4]
 80029ea:	6ce0      	ldr	r0, [r4, #76]	; 0x4c
 80029ec:	f023 0303 	bic.w	r3, r3, #3
 80029f0:	604b      	str	r3, [r1, #4]
 80029f2:	b140      	cbz	r0, 8002a06 <HAL_SPI_IRQHandler+0xa6>
 80029f4:	4b2a      	ldr	r3, [pc, #168]	; (8002aa0 <HAL_SPI_IRQHandler+0x140>)
 80029f6:	6503      	str	r3, [r0, #80]	; 0x50
 80029f8:	f7ff f840 	bl	8001a7c <HAL_DMA_Abort_IT>
 80029fc:	b118      	cbz	r0, 8002a06 <HAL_SPI_IRQHandler+0xa6>
 80029fe:	6d63      	ldr	r3, [r4, #84]	; 0x54
 8002a00:	f043 0340 	orr.w	r3, r3, #64	; 0x40
 8002a04:	6563      	str	r3, [r4, #84]	; 0x54
 8002a06:	6ca0      	ldr	r0, [r4, #72]	; 0x48
 8002a08:	b140      	cbz	r0, 8002a1c <HAL_SPI_IRQHandler+0xbc>
 8002a0a:	4b25      	ldr	r3, [pc, #148]	; (8002aa0 <HAL_SPI_IRQHandler+0x140>)
 8002a0c:	6503      	str	r3, [r0, #80]	; 0x50
 8002a0e:	f7ff f835 	bl	8001a7c <HAL_DMA_Abort_IT>
 8002a12:	b118      	cbz	r0, 8002a1c <HAL_SPI_IRQHandler+0xbc>
 8002a14:	6d63      	ldr	r3, [r4, #84]	; 0x54
 8002a16:	f043 0340 	orr.w	r3, r3, #64	; 0x40
 8002a1a:	6563      	str	r3, [r4, #84]	; 0x54
 8002a1c:	b005      	add	sp, #20
 8002a1e:	bd30      	pop	{r4, r5, pc}
 8002a20:	06a8      	lsls	r0, r5, #26
 8002a22:	d5fb      	bpl.n	8002a1c <HAL_SPI_IRQHandler+0xbc>
 8002a24:	b9ec      	cbnz	r4, 8002a62 <HAL_SPI_IRQHandler+0x102>
 8002a26:	f3c3 2300 	ubfx	r3, r3, #8, #1
 8002a2a:	6d50      	ldr	r0, [r2, #84]	; 0x54
 8002a2c:	2400      	movs	r4, #0
 8002a2e:	f040 0001 	orr.w	r0, r0, #1
 8002a32:	6550      	str	r0, [r2, #84]	; 0x54
 8002a34:	9402      	str	r4, [sp, #8]
 8002a36:	6888      	ldr	r0, [r1, #8]
 8002a38:	9002      	str	r0, [sp, #8]
 8002a3a:	6808      	ldr	r0, [r1, #0]
 8002a3c:	f020 0040 	bic.w	r0, r0, #64	; 0x40
 8002a40:	6008      	str	r0, [r1, #0]
 8002a42:	9802      	ldr	r0, [sp, #8]
 8002a44:	e7c2      	b.n	80029cc <HAL_SPI_IRQHandler+0x6c>
 8002a46:	05dc      	lsls	r4, r3, #23
 8002a48:	d5e8      	bpl.n	8002a1c <HAL_SPI_IRQHandler+0xbc>
 8002a4a:	06ab      	lsls	r3, r5, #26
 8002a4c:	d5e6      	bpl.n	8002a1c <HAL_SPI_IRQHandler+0xbc>
 8002a4e:	6d53      	ldr	r3, [r2, #84]	; 0x54
 8002a50:	2000      	movs	r0, #0
 8002a52:	f043 0308 	orr.w	r3, r3, #8
 8002a56:	6553      	str	r3, [r2, #84]	; 0x54
 8002a58:	9003      	str	r0, [sp, #12]
 8002a5a:	688b      	ldr	r3, [r1, #8]
 8002a5c:	9303      	str	r3, [sp, #12]
 8002a5e:	9b03      	ldr	r3, [sp, #12]
 8002a60:	e7b6      	b.n	80029d0 <HAL_SPI_IRQHandler+0x70>
 8002a62:	f892 0051 	ldrb.w	r0, [r2, #81]	; 0x51
 8002a66:	2803      	cmp	r0, #3
 8002a68:	d10b      	bne.n	8002a82 <HAL_SPI_IRQHandler+0x122>
 8002a6a:	2300      	movs	r3, #0
 8002a6c:	9301      	str	r3, [sp, #4]
 8002a6e:	68cb      	ldr	r3, [r1, #12]
 8002a70:	9301      	str	r3, [sp, #4]
 8002a72:	688b      	ldr	r3, [r1, #8]
 8002a74:	9301      	str	r3, [sp, #4]
 8002a76:	9b01      	ldr	r3, [sp, #4]
 8002a78:	e7d0      	b.n	8002a1c <HAL_SPI_IRQHandler+0xbc>
 8002a7a:	4620      	mov	r0, r4
 8002a7c:	f7ff fd2c 	bl	80024d8 <HAL_SPI_ErrorCallback>
 8002a80:	e7cc      	b.n	8002a1c <HAL_SPI_IRQHandler+0xbc>
 8002a82:	6d50      	ldr	r0, [r2, #84]	; 0x54
 8002a84:	2400      	movs	r4, #0
 8002a86:	f040 0004 	orr.w	r0, r0, #4
 8002a8a:	6550      	str	r0, [r2, #84]	; 0x54
 8002a8c:	9400      	str	r4, [sp, #0]
 8002a8e:	68c8      	ldr	r0, [r1, #12]
 8002a90:	9000      	str	r0, [sp, #0]
 8002a92:	6888      	ldr	r0, [r1, #8]
 8002a94:	9000      	str	r0, [sp, #0]
 8002a96:	f3c3 2300 	ubfx	r3, r3, #8, #1
 8002a9a:	9800      	ldr	r0, [sp, #0]
 8002a9c:	e7c5      	b.n	8002a2a <HAL_SPI_IRQHandler+0xca>
 8002a9e:	bf00      	nop
 8002aa0:	08002aa5 	.word	0x08002aa5

08002aa4 <SPI_DMAAbortOnError>:
 8002aa4:	b508      	push	{r3, lr}
 8002aa6:	6b83      	ldr	r3, [r0, #56]	; 0x38
 8002aa8:	2200      	movs	r2, #0
 8002aaa:	87da      	strh	r2, [r3, #62]	; 0x3e
 8002aac:	4618      	mov	r0, r3
 8002aae:	86da      	strh	r2, [r3, #54]	; 0x36
 8002ab0:	f7ff fd12 	bl	80024d8 <HAL_SPI_ErrorCallback>
 8002ab4:	bd08      	pop	{r3, pc}
 8002ab6:	bf00      	nop

08002ab8 <SPI_TxISR_16BIT>:
 8002ab8:	6b02      	ldr	r2, [r0, #48]	; 0x30
 8002aba:	6803      	ldr	r3, [r0, #0]
 8002abc:	f832 1b02 	ldrh.w	r1, [r2], #2
 8002ac0:	60d9      	str	r1, [r3, #12]
 8002ac2:	8ec3      	ldrh	r3, [r0, #54]	; 0x36
 8002ac4:	6302      	str	r2, [r0, #48]	; 0x30
 8002ac6:	3b01      	subs	r3, #1
 8002ac8:	b29b      	uxth	r3, r3
 8002aca:	86c3      	strh	r3, [r0, #54]	; 0x36
 8002acc:	8ec3      	ldrh	r3, [r0, #54]	; 0x36
 8002ace:	b29b      	uxth	r3, r3
 8002ad0:	b103      	cbz	r3, 8002ad4 <SPI_TxISR_16BIT+0x1c>
 8002ad2:	4770      	bx	lr
 8002ad4:	b570      	push	{r4, r5, r6, lr}
 8002ad6:	4e45      	ldr	r6, [pc, #276]	; (8002bec <SPI_TxISR_16BIT+0x134>)
 8002ad8:	4a45      	ldr	r2, [pc, #276]	; (8002bf0 <SPI_TxISR_16BIT+0x138>)
 8002ada:	6833      	ldr	r3, [r6, #0]
 8002adc:	fba2 2303 	umull	r2, r3, r2, r3
 8002ae0:	b084      	sub	sp, #16
 8002ae2:	2264      	movs	r2, #100	; 0x64
 8002ae4:	0a5b      	lsrs	r3, r3, #9
 8002ae6:	fb02 f303 	mul.w	r3, r2, r3
 8002aea:	4604      	mov	r4, r0
 8002aec:	9301      	str	r3, [sp, #4]
 8002aee:	f7fe ff4f 	bl	8001990 <HAL_GetTick>
 8002af2:	6822      	ldr	r2, [r4, #0]
 8002af4:	4605      	mov	r5, r0
 8002af6:	e005      	b.n	8002b04 <SPI_TxISR_16BIT+0x4c>
 8002af8:	9b01      	ldr	r3, [sp, #4]
 8002afa:	3b01      	subs	r3, #1
 8002afc:	9301      	str	r3, [sp, #4]
 8002afe:	6893      	ldr	r3, [r2, #8]
 8002b00:	0798      	lsls	r0, r3, #30
 8002b02:	d406      	bmi.n	8002b12 <SPI_TxISR_16BIT+0x5a>
 8002b04:	9b01      	ldr	r3, [sp, #4]
 8002b06:	2b00      	cmp	r3, #0
 8002b08:	d1f6      	bne.n	8002af8 <SPI_TxISR_16BIT+0x40>
 8002b0a:	6d63      	ldr	r3, [r4, #84]	; 0x54
 8002b0c:	f043 0320 	orr.w	r3, r3, #32
 8002b10:	6563      	str	r3, [r4, #84]	; 0x54
 8002b12:	6833      	ldr	r3, [r6, #0]
 8002b14:	4937      	ldr	r1, [pc, #220]	; (8002bf4 <SPI_TxISR_16BIT+0x13c>)
 8002b16:	6850      	ldr	r0, [r2, #4]
 8002b18:	6866      	ldr	r6, [r4, #4]
 8002b1a:	fba1 1303 	umull	r1, r3, r1, r3
 8002b1e:	0d5b      	lsrs	r3, r3, #21
 8002b20:	f44f 717a 	mov.w	r1, #1000	; 0x3e8
 8002b24:	fb01 f303 	mul.w	r3, r1, r3
 8002b28:	f020 00a0 	bic.w	r0, r0, #160	; 0xa0
 8002b2c:	f5b6 7f82 	cmp.w	r6, #260	; 0x104
 8002b30:	6050      	str	r0, [r2, #4]
 8002b32:	9303      	str	r3, [sp, #12]
 8002b34:	d106      	bne.n	8002b44 <SPI_TxISR_16BIT+0x8c>
 8002b36:	e020      	b.n	8002b7a <SPI_TxISR_16BIT+0xc2>
 8002b38:	9b03      	ldr	r3, [sp, #12]
 8002b3a:	3b01      	subs	r3, #1
 8002b3c:	9303      	str	r3, [sp, #12]
 8002b3e:	6893      	ldr	r3, [r2, #8]
 8002b40:	061b      	lsls	r3, r3, #24
 8002b42:	d502      	bpl.n	8002b4a <SPI_TxISR_16BIT+0x92>
 8002b44:	9b03      	ldr	r3, [sp, #12]
 8002b46:	2b00      	cmp	r3, #0
 8002b48:	d1f6      	bne.n	8002b38 <SPI_TxISR_16BIT+0x80>
 8002b4a:	68a3      	ldr	r3, [r4, #8]
 8002b4c:	b92b      	cbnz	r3, 8002b5a <SPI_TxISR_16BIT+0xa2>
 8002b4e:	9302      	str	r3, [sp, #8]
 8002b50:	68d3      	ldr	r3, [r2, #12]
 8002b52:	9302      	str	r3, [sp, #8]
 8002b54:	6893      	ldr	r3, [r2, #8]
 8002b56:	9302      	str	r3, [sp, #8]
 8002b58:	9b02      	ldr	r3, [sp, #8]
 8002b5a:	2301      	movs	r3, #1
 8002b5c:	f884 3051 	strb.w	r3, [r4, #81]	; 0x51
 8002b60:	6d63      	ldr	r3, [r4, #84]	; 0x54
 8002b62:	4620      	mov	r0, r4
 8002b64:	b96b      	cbnz	r3, 8002b82 <SPI_TxISR_16BIT+0xca>
 8002b66:	f7ff fcb3 	bl	80024d0 <HAL_SPI_TxCpltCallback>
 8002b6a:	b004      	add	sp, #16
 8002b6c:	bd70      	pop	{r4, r5, r6, pc}
 8002b6e:	f7fe ff0f 	bl	8001990 <HAL_GetTick>
 8002b72:	1b40      	subs	r0, r0, r5
 8002b74:	2863      	cmp	r0, #99	; 0x63
 8002b76:	6822      	ldr	r2, [r4, #0]
 8002b78:	d807      	bhi.n	8002b8a <SPI_TxISR_16BIT+0xd2>
 8002b7a:	6893      	ldr	r3, [r2, #8]
 8002b7c:	0619      	lsls	r1, r3, #24
 8002b7e:	d4f6      	bmi.n	8002b6e <SPI_TxISR_16BIT+0xb6>
 8002b80:	e7e3      	b.n	8002b4a <SPI_TxISR_16BIT+0x92>
 8002b82:	f7ff fca9 	bl	80024d8 <HAL_SPI_ErrorCallback>
 8002b86:	b004      	add	sp, #16
 8002b88:	bd70      	pop	{r4, r5, r6, pc}
 8002b8a:	6860      	ldr	r0, [r4, #4]
 8002b8c:	6851      	ldr	r1, [r2, #4]
 8002b8e:	68a3      	ldr	r3, [r4, #8]
 8002b90:	f021 01e0 	bic.w	r1, r1, #224	; 0xe0
 8002b94:	f5b0 7f82 	cmp.w	r0, #260	; 0x104
 8002b98:	6051      	str	r1, [r2, #4]
 8002b9a:	d01c      	beq.n	8002bd6 <SPI_TxISR_16BIT+0x11e>
 8002b9c:	6aa1      	ldr	r1, [r4, #40]	; 0x28
 8002b9e:	f5b1 5f00 	cmp.w	r1, #8192	; 0x2000
 8002ba2:	d107      	bne.n	8002bb4 <SPI_TxISR_16BIT+0xfc>
 8002ba4:	6811      	ldr	r1, [r2, #0]
 8002ba6:	f421 5100 	bic.w	r1, r1, #8192	; 0x2000
 8002baa:	6011      	str	r1, [r2, #0]
 8002bac:	6811      	ldr	r1, [r2, #0]
 8002bae:	f441 5100 	orr.w	r1, r1, #8192	; 0x2000
 8002bb2:	6011      	str	r1, [r2, #0]
 8002bb4:	2101      	movs	r1, #1
 8002bb6:	f884 1051 	strb.w	r1, [r4, #81]	; 0x51
 8002bba:	6d61      	ldr	r1, [r4, #84]	; 0x54
 8002bbc:	f041 0120 	orr.w	r1, r1, #32
 8002bc0:	6561      	str	r1, [r4, #84]	; 0x54
 8002bc2:	6d61      	ldr	r1, [r4, #84]	; 0x54
 8002bc4:	2000      	movs	r0, #0
 8002bc6:	f041 0120 	orr.w	r1, r1, #32
 8002bca:	6561      	str	r1, [r4, #84]	; 0x54
 8002bcc:	f884 0050 	strb.w	r0, [r4, #80]	; 0x50
 8002bd0:	2b00      	cmp	r3, #0
 8002bd2:	d1c2      	bne.n	8002b5a <SPI_TxISR_16BIT+0xa2>
 8002bd4:	e7bb      	b.n	8002b4e <SPI_TxISR_16BIT+0x96>
 8002bd6:	f5b3 4f00 	cmp.w	r3, #32768	; 0x8000
 8002bda:	d002      	beq.n	8002be2 <SPI_TxISR_16BIT+0x12a>
 8002bdc:	f5b3 6f80 	cmp.w	r3, #1024	; 0x400
 8002be0:	d1dc      	bne.n	8002b9c <SPI_TxISR_16BIT+0xe4>
 8002be2:	6811      	ldr	r1, [r2, #0]
 8002be4:	f021 0140 	bic.w	r1, r1, #64	; 0x40
 8002be8:	6011      	str	r1, [r2, #0]
 8002bea:	e7d7      	b.n	8002b9c <SPI_TxISR_16BIT+0xe4>
 8002bec:	20000004 	.word	0x20000004
 8002bf0:	057619f1 	.word	0x057619f1
 8002bf4:	165e9f81 	.word	0x165e9f81

08002bf8 <SPI_RxISR_16BIT>:
 8002bf8:	6801      	ldr	r1, [r0, #0]
 8002bfa:	6b82      	ldr	r2, [r0, #56]	; 0x38
 8002bfc:	68cb      	ldr	r3, [r1, #12]
 8002bfe:	f822 3b02 	strh.w	r3, [r2], #2
 8002c02:	8fc3      	ldrh	r3, [r0, #62]	; 0x3e
 8002c04:	6382      	str	r2, [r0, #56]	; 0x38
 8002c06:	3b01      	subs	r3, #1
 8002c08:	b29b      	uxth	r3, r3
 8002c0a:	87c3      	strh	r3, [r0, #62]	; 0x3e
 8002c0c:	8fc3      	ldrh	r3, [r0, #62]	; 0x3e
 8002c0e:	b29b      	uxth	r3, r3
 8002c10:	b103      	cbz	r3, 8002c14 <SPI_RxISR_16BIT+0x1c>
 8002c12:	4770      	bx	lr
 8002c14:	b530      	push	{r4, r5, lr}
 8002c16:	684b      	ldr	r3, [r1, #4]
 8002c18:	4604      	mov	r4, r0
 8002c1a:	f023 0360 	bic.w	r3, r3, #96	; 0x60
 8002c1e:	604b      	str	r3, [r1, #4]
 8002c20:	b083      	sub	sp, #12
 8002c22:	f7fe feb5 	bl	8001990 <HAL_GetTick>
 8002c26:	6863      	ldr	r3, [r4, #4]
 8002c28:	f5b3 7f82 	cmp.w	r3, #260	; 0x104
 8002c2c:	4605      	mov	r5, r0
 8002c2e:	d105      	bne.n	8002c3c <SPI_RxISR_16BIT+0x44>
 8002c30:	e01e      	b.n	8002c70 <SPI_RxISR_16BIT+0x78>
 8002c32:	f7fe fead 	bl	8001990 <HAL_GetTick>
 8002c36:	1b40      	subs	r0, r0, r5
 8002c38:	2863      	cmp	r0, #99	; 0x63
 8002c3a:	d82c      	bhi.n	8002c96 <SPI_RxISR_16BIT+0x9e>
 8002c3c:	6823      	ldr	r3, [r4, #0]
 8002c3e:	689a      	ldr	r2, [r3, #8]
 8002c40:	07d2      	lsls	r2, r2, #31
 8002c42:	d4f6      	bmi.n	8002c32 <SPI_RxISR_16BIT+0x3a>
 8002c44:	68a2      	ldr	r2, [r4, #8]
 8002c46:	b92a      	cbnz	r2, 8002c54 <SPI_RxISR_16BIT+0x5c>
 8002c48:	9201      	str	r2, [sp, #4]
 8002c4a:	68da      	ldr	r2, [r3, #12]
 8002c4c:	9201      	str	r2, [sp, #4]
 8002c4e:	689b      	ldr	r3, [r3, #8]
 8002c50:	9301      	str	r3, [sp, #4]
 8002c52:	9b01      	ldr	r3, [sp, #4]
 8002c54:	2301      	movs	r3, #1
 8002c56:	f884 3051 	strb.w	r3, [r4, #81]	; 0x51
 8002c5a:	6d63      	ldr	r3, [r4, #84]	; 0x54
 8002c5c:	4620      	mov	r0, r4
 8002c5e:	b11b      	cbz	r3, 8002c68 <SPI_RxISR_16BIT+0x70>
 8002c60:	f7ff fc3a 	bl	80024d8 <HAL_SPI_ErrorCallback>
 8002c64:	b003      	add	sp, #12
 8002c66:	bd30      	pop	{r4, r5, pc}
 8002c68:	f7fe fb4a 	bl	8001300 <HAL_SPI_RxCpltCallback>
 8002c6c:	b003      	add	sp, #12
 8002c6e:	bd30      	pop	{r4, r5, pc}
 8002c70:	68a2      	ldr	r2, [r4, #8]
 8002c72:	6823      	ldr	r3, [r4, #0]
 8002c74:	f5b2 4f00 	cmp.w	r2, #32768	; 0x8000
 8002c78:	d03d      	beq.n	8002cf6 <SPI_RxISR_16BIT+0xfe>
 8002c7a:	f5b2 6f80 	cmp.w	r2, #1024	; 0x400
 8002c7e:	d106      	bne.n	8002c8e <SPI_RxISR_16BIT+0x96>
 8002c80:	e03e      	b.n	8002d00 <SPI_RxISR_16BIT+0x108>
 8002c82:	f7fe fe85 	bl	8001990 <HAL_GetTick>
 8002c86:	1b40      	subs	r0, r0, r5
 8002c88:	2863      	cmp	r0, #99	; 0x63
 8002c8a:	6823      	ldr	r3, [r4, #0]
 8002c8c:	d804      	bhi.n	8002c98 <SPI_RxISR_16BIT+0xa0>
 8002c8e:	689a      	ldr	r2, [r3, #8]
 8002c90:	0610      	lsls	r0, r2, #24
 8002c92:	d4f6      	bmi.n	8002c82 <SPI_RxISR_16BIT+0x8a>
 8002c94:	e7d6      	b.n	8002c44 <SPI_RxISR_16BIT+0x4c>
 8002c96:	6823      	ldr	r3, [r4, #0]
 8002c98:	6860      	ldr	r0, [r4, #4]
 8002c9a:	6859      	ldr	r1, [r3, #4]
 8002c9c:	68a2      	ldr	r2, [r4, #8]
 8002c9e:	f021 01e0 	bic.w	r1, r1, #224	; 0xe0
 8002ca2:	f5b0 7f82 	cmp.w	r0, #260	; 0x104
 8002ca6:	6059      	str	r1, [r3, #4]
 8002ca8:	d01a      	beq.n	8002ce0 <SPI_RxISR_16BIT+0xe8>
 8002caa:	6aa1      	ldr	r1, [r4, #40]	; 0x28
 8002cac:	f5b1 5f00 	cmp.w	r1, #8192	; 0x2000
 8002cb0:	d107      	bne.n	8002cc2 <SPI_RxISR_16BIT+0xca>
 8002cb2:	6819      	ldr	r1, [r3, #0]
 8002cb4:	f421 5100 	bic.w	r1, r1, #8192	; 0x2000
 8002cb8:	6019      	str	r1, [r3, #0]
 8002cba:	6819      	ldr	r1, [r3, #0]
 8002cbc:	f441 5100 	orr.w	r1, r1, #8192	; 0x2000
 8002cc0:	6019      	str	r1, [r3, #0]
 8002cc2:	2101      	movs	r1, #1
 8002cc4:	f884 1051 	strb.w	r1, [r4, #81]	; 0x51
 8002cc8:	6d61      	ldr	r1, [r4, #84]	; 0x54
 8002cca:	f041 0120 	orr.w	r1, r1, #32
 8002cce:	6561      	str	r1, [r4, #84]	; 0x54
 8002cd0:	6d61      	ldr	r1, [r4, #84]	; 0x54
 8002cd2:	2000      	movs	r0, #0
 8002cd4:	f041 0120 	orr.w	r1, r1, #32
 8002cd8:	f884 0050 	strb.w	r0, [r4, #80]	; 0x50
 8002cdc:	6561      	str	r1, [r4, #84]	; 0x54
 8002cde:	e7b2      	b.n	8002c46 <SPI_RxISR_16BIT+0x4e>
 8002ce0:	f5b2 4f00 	cmp.w	r2, #32768	; 0x8000
 8002ce4:	d002      	beq.n	8002cec <SPI_RxISR_16BIT+0xf4>
 8002ce6:	f5b2 6f80 	cmp.w	r2, #1024	; 0x400
 8002cea:	d1de      	bne.n	8002caa <SPI_RxISR_16BIT+0xb2>
 8002cec:	6819      	ldr	r1, [r3, #0]
 8002cee:	f021 0140 	bic.w	r1, r1, #64	; 0x40
 8002cf2:	6019      	str	r1, [r3, #0]
 8002cf4:	e7d9      	b.n	8002caa <SPI_RxISR_16BIT+0xb2>
 8002cf6:	681a      	ldr	r2, [r3, #0]
 8002cf8:	f022 0240 	bic.w	r2, r2, #64	; 0x40
 8002cfc:	601a      	str	r2, [r3, #0]
 8002cfe:	e7c6      	b.n	8002c8e <SPI_RxISR_16BIT+0x96>
 8002d00:	681a      	ldr	r2, [r3, #0]
 8002d02:	f022 0240 	bic.w	r2, r2, #64	; 0x40
 8002d06:	601a      	str	r2, [r3, #0]
 8002d08:	e005      	b.n	8002d16 <SPI_RxISR_16BIT+0x11e>
 8002d0a:	f7fe fe41 	bl	8001990 <HAL_GetTick>
 8002d0e:	1b40      	subs	r0, r0, r5
 8002d10:	2863      	cmp	r0, #99	; 0x63
 8002d12:	6823      	ldr	r3, [r4, #0]
 8002d14:	d8c0      	bhi.n	8002c98 <SPI_RxISR_16BIT+0xa0>
 8002d16:	689a      	ldr	r2, [r3, #8]
 8002d18:	07d1      	lsls	r1, r2, #31
 8002d1a:	d4f6      	bmi.n	8002d0a <SPI_RxISR_16BIT+0x112>
 8002d1c:	e792      	b.n	8002c44 <SPI_RxISR_16BIT+0x4c>
 8002d1e:	bf00      	nop

08002d20 <HAL_SPI_AbortCpltCallback>:
 8002d20:	4770      	bx	lr
 8002d22:	bf00      	nop

08002d24 <HAL_SPI_Abort_IT>:
 8002d24:	b530      	push	{r4, r5, lr}
 8002d26:	4b4f      	ldr	r3, [pc, #316]	; (8002e64 <HAL_SPI_Abort_IT+0x140>)
 8002d28:	4a4f      	ldr	r2, [pc, #316]	; (8002e68 <HAL_SPI_Abort_IT+0x144>)
 8002d2a:	681b      	ldr	r3, [r3, #0]
 8002d2c:	fba2 2303 	umull	r2, r3, r2, r3
 8002d30:	b085      	sub	sp, #20
 8002d32:	2264      	movs	r2, #100	; 0x64
 8002d34:	0a5b      	lsrs	r3, r3, #9
 8002d36:	fb02 f303 	mul.w	r3, r2, r3
 8002d3a:	9301      	str	r3, [sp, #4]
 8002d3c:	9b01      	ldr	r3, [sp, #4]
 8002d3e:	6802      	ldr	r2, [r0, #0]
 8002d40:	9300      	str	r3, [sp, #0]
 8002d42:	6853      	ldr	r3, [r2, #4]
 8002d44:	f023 0320 	bic.w	r3, r3, #32
 8002d48:	6053      	str	r3, [r2, #4]
 8002d4a:	6853      	ldr	r3, [r2, #4]
 8002d4c:	061d      	lsls	r5, r3, #24
 8002d4e:	4604      	mov	r4, r0
 8002d50:	d512      	bpl.n	8002d78 <HAL_SPI_Abort_IT+0x54>
 8002d52:	4b46      	ldr	r3, [pc, #280]	; (8002e6c <HAL_SPI_Abort_IT+0x148>)
 8002d54:	6443      	str	r3, [r0, #68]	; 0x44
 8002d56:	e006      	b.n	8002d66 <HAL_SPI_Abort_IT+0x42>
 8002d58:	9b00      	ldr	r3, [sp, #0]
 8002d5a:	3b01      	subs	r3, #1
 8002d5c:	9300      	str	r3, [sp, #0]
 8002d5e:	f894 3051 	ldrb.w	r3, [r4, #81]	; 0x51
 8002d62:	2b07      	cmp	r3, #7
 8002d64:	d006      	beq.n	8002d74 <HAL_SPI_Abort_IT+0x50>
 8002d66:	9b00      	ldr	r3, [sp, #0]
 8002d68:	2b00      	cmp	r3, #0
 8002d6a:	d1f5      	bne.n	8002d58 <HAL_SPI_Abort_IT+0x34>
 8002d6c:	6d63      	ldr	r3, [r4, #84]	; 0x54
 8002d6e:	f043 0340 	orr.w	r3, r3, #64	; 0x40
 8002d72:	6563      	str	r3, [r4, #84]	; 0x54
 8002d74:	9b01      	ldr	r3, [sp, #4]
 8002d76:	9300      	str	r3, [sp, #0]
 8002d78:	6853      	ldr	r3, [r2, #4]
 8002d7a:	0658      	lsls	r0, r3, #25
 8002d7c:	d512      	bpl.n	8002da4 <HAL_SPI_Abort_IT+0x80>
 8002d7e:	4b3c      	ldr	r3, [pc, #240]	; (8002e70 <HAL_SPI_Abort_IT+0x14c>)
 8002d80:	6423      	str	r3, [r4, #64]	; 0x40
 8002d82:	e006      	b.n	8002d92 <HAL_SPI_Abort_IT+0x6e>
 8002d84:	9b00      	ldr	r3, [sp, #0]
 8002d86:	3b01      	subs	r3, #1
 8002d88:	9300      	str	r3, [sp, #0]
 8002d8a:	f894 3051 	ldrb.w	r3, [r4, #81]	; 0x51
 8002d8e:	2b07      	cmp	r3, #7
 8002d90:	d006      	beq.n	8002da0 <HAL_SPI_Abort_IT+0x7c>
 8002d92:	9b00      	ldr	r3, [sp, #0]
 8002d94:	2b00      	cmp	r3, #0
 8002d96:	d1f5      	bne.n	8002d84 <HAL_SPI_Abort_IT+0x60>
 8002d98:	6d63      	ldr	r3, [r4, #84]	; 0x54
 8002d9a:	f043 0340 	orr.w	r3, r3, #64	; 0x40
 8002d9e:	6563      	str	r3, [r4, #84]	; 0x54
 8002da0:	9b01      	ldr	r3, [sp, #4]
 8002da2:	9300      	str	r3, [sp, #0]
 8002da4:	6ca0      	ldr	r0, [r4, #72]	; 0x48
 8002da6:	b128      	cbz	r0, 8002db4 <HAL_SPI_Abort_IT+0x90>
 8002da8:	6853      	ldr	r3, [r2, #4]
 8002daa:	f013 0302 	ands.w	r3, r3, #2
 8002dae:	bf18      	it	ne
 8002db0:	4b30      	ldrne	r3, [pc, #192]	; (8002e74 <HAL_SPI_Abort_IT+0x150>)
 8002db2:	6503      	str	r3, [r0, #80]	; 0x50
 8002db4:	6ce1      	ldr	r1, [r4, #76]	; 0x4c
 8002db6:	b129      	cbz	r1, 8002dc4 <HAL_SPI_Abort_IT+0xa0>
 8002db8:	6853      	ldr	r3, [r2, #4]
 8002dba:	f013 0301 	ands.w	r3, r3, #1
 8002dbe:	bf18      	it	ne
 8002dc0:	4b2d      	ldrne	r3, [pc, #180]	; (8002e78 <HAL_SPI_Abort_IT+0x154>)
 8002dc2:	650b      	str	r3, [r1, #80]	; 0x50
 8002dc4:	6853      	ldr	r3, [r2, #4]
 8002dc6:	0799      	lsls	r1, r3, #30
 8002dc8:	d50b      	bpl.n	8002de2 <HAL_SPI_Abort_IT+0xbe>
 8002dca:	b150      	cbz	r0, 8002de2 <HAL_SPI_Abort_IT+0xbe>
 8002dcc:	f7fe fe56 	bl	8001a7c <HAL_DMA_Abort_IT>
 8002dd0:	4605      	mov	r5, r0
 8002dd2:	2800      	cmp	r0, #0
 8002dd4:	d036      	beq.n	8002e44 <HAL_SPI_Abort_IT+0x120>
 8002dd6:	6ca1      	ldr	r1, [r4, #72]	; 0x48
 8002dd8:	6822      	ldr	r2, [r4, #0]
 8002dda:	2000      	movs	r0, #0
 8002ddc:	2340      	movs	r3, #64	; 0x40
 8002dde:	6508      	str	r0, [r1, #80]	; 0x50
 8002de0:	6563      	str	r3, [r4, #84]	; 0x54
 8002de2:	6853      	ldr	r3, [r2, #4]
 8002de4:	07db      	lsls	r3, r3, #31
 8002de6:	d50e      	bpl.n	8002e06 <HAL_SPI_Abort_IT+0xe2>
 8002de8:	6ce0      	ldr	r0, [r4, #76]	; 0x4c
 8002dea:	b160      	cbz	r0, 8002e06 <HAL_SPI_Abort_IT+0xe2>
 8002dec:	f7fe fe46 	bl	8001a7c <HAL_DMA_Abort_IT>
 8002df0:	b918      	cbnz	r0, 8002dfa <HAL_SPI_Abort_IT+0xd6>
 8002df2:	2500      	movs	r5, #0
 8002df4:	4628      	mov	r0, r5
 8002df6:	b005      	add	sp, #20
 8002df8:	bd30      	pop	{r4, r5, pc}
 8002dfa:	6ce1      	ldr	r1, [r4, #76]	; 0x4c
 8002dfc:	6822      	ldr	r2, [r4, #0]
 8002dfe:	2000      	movs	r0, #0
 8002e00:	2340      	movs	r3, #64	; 0x40
 8002e02:	6508      	str	r0, [r1, #80]	; 0x50
 8002e04:	6563      	str	r3, [r4, #84]	; 0x54
 8002e06:	2500      	movs	r5, #0
 8002e08:	87e5      	strh	r5, [r4, #62]	; 0x3e
 8002e0a:	86e5      	strh	r5, [r4, #54]	; 0x36
 8002e0c:	6d63      	ldr	r3, [r4, #84]	; 0x54
 8002e0e:	2b40      	cmp	r3, #64	; 0x40
 8002e10:	f04f 0300 	mov.w	r3, #0
 8002e14:	bf18      	it	ne
 8002e16:	6565      	strne	r5, [r4, #84]	; 0x54
 8002e18:	9302      	str	r3, [sp, #8]
 8002e1a:	68d1      	ldr	r1, [r2, #12]
 8002e1c:	9102      	str	r1, [sp, #8]
 8002e1e:	6891      	ldr	r1, [r2, #8]
 8002e20:	9102      	str	r1, [sp, #8]
 8002e22:	9902      	ldr	r1, [sp, #8]
 8002e24:	9303      	str	r3, [sp, #12]
 8002e26:	6893      	ldr	r3, [r2, #8]
 8002e28:	9303      	str	r3, [sp, #12]
 8002e2a:	f04f 0301 	mov.w	r3, #1
 8002e2e:	9a03      	ldr	r2, [sp, #12]
 8002e30:	f884 3051 	strb.w	r3, [r4, #81]	; 0x51
 8002e34:	4620      	mov	r0, r4
 8002e36:	bf08      	it	eq
 8002e38:	2501      	moveq	r5, #1
 8002e3a:	f7ff ff71 	bl	8002d20 <HAL_SPI_AbortCpltCallback>
 8002e3e:	4628      	mov	r0, r5
 8002e40:	b005      	add	sp, #20
 8002e42:	bd30      	pop	{r4, r5, pc}
 8002e44:	6823      	ldr	r3, [r4, #0]
 8002e46:	685b      	ldr	r3, [r3, #4]
 8002e48:	07da      	lsls	r2, r3, #31
 8002e4a:	d5d2      	bpl.n	8002df2 <HAL_SPI_Abort_IT+0xce>
 8002e4c:	6ce0      	ldr	r0, [r4, #76]	; 0x4c
 8002e4e:	2800      	cmp	r0, #0
 8002e50:	d0cf      	beq.n	8002df2 <HAL_SPI_Abort_IT+0xce>
 8002e52:	f7fe fe13 	bl	8001a7c <HAL_DMA_Abort_IT>
 8002e56:	2800      	cmp	r0, #0
 8002e58:	d0cb      	beq.n	8002df2 <HAL_SPI_Abort_IT+0xce>
 8002e5a:	6ce2      	ldr	r2, [r4, #76]	; 0x4c
 8002e5c:	2340      	movs	r3, #64	; 0x40
 8002e5e:	6515      	str	r5, [r2, #80]	; 0x50
 8002e60:	6563      	str	r3, [r4, #84]	; 0x54
 8002e62:	e7c6      	b.n	8002df2 <HAL_SPI_Abort_IT+0xce>
 8002e64:	20000004 	.word	0x20000004
 8002e68:	057619f1 	.word	0x057619f1
 8002e6c:	0800226d 	.word	0x0800226d
 8002e70:	08002215 	.word	0x08002215
 8002e74:	08002f95 	.word	0x08002f95
 8002e78:	08002e7d 	.word	0x08002e7d

08002e7c <SPI_DMARxAbortCallback>:
 8002e7c:	b530      	push	{r4, r5, lr}
 8002e7e:	6b84      	ldr	r4, [r0, #56]	; 0x38
 8002e80:	6823      	ldr	r3, [r4, #0]
 8002e82:	6ce1      	ldr	r1, [r4, #76]	; 0x4c
 8002e84:	681a      	ldr	r2, [r3, #0]
 8002e86:	f022 0240 	bic.w	r2, r2, #64	; 0x40
 8002e8a:	601a      	str	r2, [r3, #0]
 8002e8c:	685a      	ldr	r2, [r3, #4]
 8002e8e:	2000      	movs	r0, #0
 8002e90:	f022 0201 	bic.w	r2, r2, #1
 8002e94:	6508      	str	r0, [r1, #80]	; 0x50
 8002e96:	b085      	sub	sp, #20
 8002e98:	605a      	str	r2, [r3, #4]
 8002e9a:	f7fe fd79 	bl	8001990 <HAL_GetTick>
 8002e9e:	4b3b      	ldr	r3, [pc, #236]	; (8002f8c <SPI_DMARxAbortCallback+0x110>)
 8002ea0:	4a3b      	ldr	r2, [pc, #236]	; (8002f90 <SPI_DMARxAbortCallback+0x114>)
 8002ea2:	681b      	ldr	r3, [r3, #0]
 8002ea4:	6861      	ldr	r1, [r4, #4]
 8002ea6:	fba2 2303 	umull	r2, r3, r2, r3
 8002eaa:	0d5b      	lsrs	r3, r3, #21
 8002eac:	f44f 727a 	mov.w	r2, #1000	; 0x3e8
 8002eb0:	fb02 f303 	mul.w	r3, r2, r3
 8002eb4:	f5b1 7f82 	cmp.w	r1, #260	; 0x104
 8002eb8:	9303      	str	r3, [sp, #12]
 8002eba:	d107      	bne.n	8002ecc <SPI_DMARxAbortCallback+0x50>
 8002ebc:	e02a      	b.n	8002f14 <SPI_DMARxAbortCallback+0x98>
 8002ebe:	9b03      	ldr	r3, [sp, #12]
 8002ec0:	6822      	ldr	r2, [r4, #0]
 8002ec2:	3b01      	subs	r3, #1
 8002ec4:	9303      	str	r3, [sp, #12]
 8002ec6:	6893      	ldr	r3, [r2, #8]
 8002ec8:	061b      	lsls	r3, r3, #24
 8002eca:	d502      	bpl.n	8002ed2 <SPI_DMARxAbortCallback+0x56>
 8002ecc:	9b03      	ldr	r3, [sp, #12]
 8002ece:	2b00      	cmp	r3, #0
 8002ed0:	d1f5      	bne.n	8002ebe <SPI_DMARxAbortCallback+0x42>
 8002ed2:	6ca3      	ldr	r3, [r4, #72]	; 0x48
 8002ed4:	b11b      	cbz	r3, 8002ede <SPI_DMARxAbortCallback+0x62>
 8002ed6:	6d1b      	ldr	r3, [r3, #80]	; 0x50
 8002ed8:	b10b      	cbz	r3, 8002ede <SPI_DMARxAbortCallback+0x62>
 8002eda:	b005      	add	sp, #20
 8002edc:	bd30      	pop	{r4, r5, pc}
 8002ede:	2300      	movs	r3, #0
 8002ee0:	87e3      	strh	r3, [r4, #62]	; 0x3e
 8002ee2:	86e3      	strh	r3, [r4, #54]	; 0x36
 8002ee4:	6d62      	ldr	r2, [r4, #84]	; 0x54
 8002ee6:	2a40      	cmp	r2, #64	; 0x40
 8002ee8:	bf18      	it	ne
 8002eea:	6563      	strne	r3, [r4, #84]	; 0x54
 8002eec:	2200      	movs	r2, #0
 8002eee:	6823      	ldr	r3, [r4, #0]
 8002ef0:	9201      	str	r2, [sp, #4]
 8002ef2:	68d9      	ldr	r1, [r3, #12]
 8002ef4:	9101      	str	r1, [sp, #4]
 8002ef6:	6899      	ldr	r1, [r3, #8]
 8002ef8:	9101      	str	r1, [sp, #4]
 8002efa:	9901      	ldr	r1, [sp, #4]
 8002efc:	9202      	str	r2, [sp, #8]
 8002efe:	689b      	ldr	r3, [r3, #8]
 8002f00:	9302      	str	r3, [sp, #8]
 8002f02:	2301      	movs	r3, #1
 8002f04:	9a02      	ldr	r2, [sp, #8]
 8002f06:	f884 3051 	strb.w	r3, [r4, #81]	; 0x51
 8002f0a:	4620      	mov	r0, r4
 8002f0c:	f7ff ff08 	bl	8002d20 <HAL_SPI_AbortCpltCallback>
 8002f10:	b005      	add	sp, #20
 8002f12:	bd30      	pop	{r4, r5, pc}
 8002f14:	4605      	mov	r5, r0
 8002f16:	e004      	b.n	8002f22 <SPI_DMARxAbortCallback+0xa6>
 8002f18:	f7fe fd3a 	bl	8001990 <HAL_GetTick>
 8002f1c:	1b40      	subs	r0, r0, r5
 8002f1e:	2863      	cmp	r0, #99	; 0x63
 8002f20:	d804      	bhi.n	8002f2c <SPI_DMARxAbortCallback+0xb0>
 8002f22:	6823      	ldr	r3, [r4, #0]
 8002f24:	689b      	ldr	r3, [r3, #8]
 8002f26:	061a      	lsls	r2, r3, #24
 8002f28:	d4f6      	bmi.n	8002f18 <SPI_DMARxAbortCallback+0x9c>
 8002f2a:	e7d2      	b.n	8002ed2 <SPI_DMARxAbortCallback+0x56>
 8002f2c:	e9d4 3100 	ldrd	r3, r1, [r4]
 8002f30:	685a      	ldr	r2, [r3, #4]
 8002f32:	f5b1 7f82 	cmp.w	r1, #260	; 0x104
 8002f36:	f022 02e0 	bic.w	r2, r2, #224	; 0xe0
 8002f3a:	605a      	str	r2, [r3, #4]
 8002f3c:	d01a      	beq.n	8002f74 <SPI_DMARxAbortCallback+0xf8>
 8002f3e:	6aa2      	ldr	r2, [r4, #40]	; 0x28
 8002f40:	f5b2 5f00 	cmp.w	r2, #8192	; 0x2000
 8002f44:	d107      	bne.n	8002f56 <SPI_DMARxAbortCallback+0xda>
 8002f46:	681a      	ldr	r2, [r3, #0]
 8002f48:	f422 5200 	bic.w	r2, r2, #8192	; 0x2000
 8002f4c:	601a      	str	r2, [r3, #0]
 8002f4e:	681a      	ldr	r2, [r3, #0]
 8002f50:	f442 5200 	orr.w	r2, r2, #8192	; 0x2000
 8002f54:	601a      	str	r2, [r3, #0]
 8002f56:	2301      	movs	r3, #1
 8002f58:	f884 3051 	strb.w	r3, [r4, #81]	; 0x51
 8002f5c:	6d63      	ldr	r3, [r4, #84]	; 0x54
 8002f5e:	f043 0320 	orr.w	r3, r3, #32
 8002f62:	6563      	str	r3, [r4, #84]	; 0x54
 8002f64:	6d63      	ldr	r3, [r4, #84]	; 0x54
 8002f66:	2200      	movs	r2, #0
 8002f68:	f043 0340 	orr.w	r3, r3, #64	; 0x40
 8002f6c:	6563      	str	r3, [r4, #84]	; 0x54
 8002f6e:	f884 2050 	strb.w	r2, [r4, #80]	; 0x50
 8002f72:	e7ae      	b.n	8002ed2 <SPI_DMARxAbortCallback+0x56>
 8002f74:	68a2      	ldr	r2, [r4, #8]
 8002f76:	f5b2 4f00 	cmp.w	r2, #32768	; 0x8000
 8002f7a:	d002      	beq.n	8002f82 <SPI_DMARxAbortCallback+0x106>
 8002f7c:	f5b2 6f80 	cmp.w	r2, #1024	; 0x400
 8002f80:	d1dd      	bne.n	8002f3e <SPI_DMARxAbortCallback+0xc2>
 8002f82:	681a      	ldr	r2, [r3, #0]
 8002f84:	f022 0240 	bic.w	r2, r2, #64	; 0x40
 8002f88:	601a      	str	r2, [r3, #0]
 8002f8a:	e7d8      	b.n	8002f3e <SPI_DMARxAbortCallback+0xc2>
 8002f8c:	20000004 	.word	0x20000004
 8002f90:	165e9f81 	.word	0x165e9f81

08002f94 <SPI_DMATxAbortCallback>:
 8002f94:	b510      	push	{r4, lr}
 8002f96:	4b20      	ldr	r3, [pc, #128]	; (8003018 <SPI_DMATxAbortCallback+0x84>)
 8002f98:	4a20      	ldr	r2, [pc, #128]	; (800301c <SPI_DMATxAbortCallback+0x88>)
 8002f9a:	681b      	ldr	r3, [r3, #0]
 8002f9c:	6b80      	ldr	r0, [r0, #56]	; 0x38
 8002f9e:	fba2 2303 	umull	r2, r3, r2, r3
 8002fa2:	b084      	sub	sp, #16
 8002fa4:	2264      	movs	r2, #100	; 0x64
 8002fa6:	0a5b      	lsrs	r3, r3, #9
 8002fa8:	fb02 f303 	mul.w	r3, r2, r3
 8002fac:	6802      	ldr	r2, [r0, #0]
 8002fae:	9301      	str	r3, [sp, #4]
 8002fb0:	6853      	ldr	r3, [r2, #4]
 8002fb2:	6c81      	ldr	r1, [r0, #72]	; 0x48
 8002fb4:	f023 0302 	bic.w	r3, r3, #2
 8002fb8:	2400      	movs	r4, #0
 8002fba:	650c      	str	r4, [r1, #80]	; 0x50
 8002fbc:	6053      	str	r3, [r2, #4]
 8002fbe:	e005      	b.n	8002fcc <SPI_DMATxAbortCallback+0x38>
 8002fc0:	9b01      	ldr	r3, [sp, #4]
 8002fc2:	3b01      	subs	r3, #1
 8002fc4:	9301      	str	r3, [sp, #4]
 8002fc6:	6893      	ldr	r3, [r2, #8]
 8002fc8:	079b      	lsls	r3, r3, #30
 8002fca:	d406      	bmi.n	8002fda <SPI_DMATxAbortCallback+0x46>
 8002fcc:	9b01      	ldr	r3, [sp, #4]
 8002fce:	2b00      	cmp	r3, #0
 8002fd0:	d1f6      	bne.n	8002fc0 <SPI_DMATxAbortCallback+0x2c>
 8002fd2:	6d43      	ldr	r3, [r0, #84]	; 0x54
 8002fd4:	f043 0340 	orr.w	r3, r3, #64	; 0x40
 8002fd8:	6543      	str	r3, [r0, #84]	; 0x54
 8002fda:	6cc3      	ldr	r3, [r0, #76]	; 0x4c
 8002fdc:	b11b      	cbz	r3, 8002fe6 <SPI_DMATxAbortCallback+0x52>
 8002fde:	6d1b      	ldr	r3, [r3, #80]	; 0x50
 8002fe0:	b10b      	cbz	r3, 8002fe6 <SPI_DMATxAbortCallback+0x52>
 8002fe2:	b004      	add	sp, #16
 8002fe4:	bd10      	pop	{r4, pc}
 8002fe6:	2300      	movs	r3, #0
 8002fe8:	87c3      	strh	r3, [r0, #62]	; 0x3e
 8002fea:	86c3      	strh	r3, [r0, #54]	; 0x36
 8002fec:	6d41      	ldr	r1, [r0, #84]	; 0x54
 8002fee:	2940      	cmp	r1, #64	; 0x40
 8002ff0:	bf18      	it	ne
 8002ff2:	6543      	strne	r3, [r0, #84]	; 0x54
 8002ff4:	2300      	movs	r3, #0
 8002ff6:	9302      	str	r3, [sp, #8]
 8002ff8:	68d1      	ldr	r1, [r2, #12]
 8002ffa:	9102      	str	r1, [sp, #8]
 8002ffc:	6891      	ldr	r1, [r2, #8]
 8002ffe:	9102      	str	r1, [sp, #8]
 8003000:	9902      	ldr	r1, [sp, #8]
 8003002:	9303      	str	r3, [sp, #12]
 8003004:	6893      	ldr	r3, [r2, #8]
 8003006:	9303      	str	r3, [sp, #12]
 8003008:	2301      	movs	r3, #1
 800300a:	9a03      	ldr	r2, [sp, #12]
 800300c:	f880 3051 	strb.w	r3, [r0, #81]	; 0x51
 8003010:	f7ff fe86 	bl	8002d20 <HAL_SPI_AbortCpltCallback>
 8003014:	b004      	add	sp, #16
 8003016:	bd10      	pop	{r4, pc}
 8003018:	20000004 	.word	0x20000004
 800301c:	057619f1 	.word	0x057619f1

08003020 <HAL_TIM_Base_Init>:
 8003020:	2800      	cmp	r0, #0
 8003022:	d05c      	beq.n	80030de <HAL_TIM_Base_Init+0xbe>
 8003024:	b5f8      	push	{r3, r4, r5, r6, r7, lr}
 8003026:	f890 303d 	ldrb.w	r3, [r0, #61]	; 0x3d
 800302a:	4604      	mov	r4, r0
 800302c:	f003 02ff 	and.w	r2, r3, #255	; 0xff
 8003030:	b3bb      	cbz	r3, 80030a2 <HAL_TIM_Base_Init+0x82>
 8003032:	6822      	ldr	r2, [r4, #0]
 8003034:	4e3a      	ldr	r6, [pc, #232]	; (8003120 <HAL_TIM_Base_Init+0x100>)
 8003036:	69a5      	ldr	r5, [r4, #24]
 8003038:	68e0      	ldr	r0, [r4, #12]
 800303a:	6861      	ldr	r1, [r4, #4]
 800303c:	2302      	movs	r3, #2
 800303e:	f884 303d 	strb.w	r3, [r4, #61]	; 0x3d
 8003042:	42b2      	cmp	r2, r6
 8003044:	6813      	ldr	r3, [r2, #0]
 8003046:	d04c      	beq.n	80030e2 <HAL_TIM_Base_Init+0xc2>
 8003048:	f1b2 4f80 	cmp.w	r2, #1073741824	; 0x40000000
 800304c:	d058      	beq.n	8003100 <HAL_TIM_Base_Init+0xe0>
 800304e:	f5a6 467c 	sub.w	r6, r6, #64512	; 0xfc00
 8003052:	42b2      	cmp	r2, r6
 8003054:	d02a      	beq.n	80030ac <HAL_TIM_Base_Init+0x8c>
 8003056:	f506 6680 	add.w	r6, r6, #1024	; 0x400
 800305a:	42b2      	cmp	r2, r6
 800305c:	d026      	beq.n	80030ac <HAL_TIM_Base_Init+0x8c>
 800305e:	f506 6680 	add.w	r6, r6, #1024	; 0x400
 8003062:	42b2      	cmp	r2, r6
 8003064:	d022      	beq.n	80030ac <HAL_TIM_Base_Init+0x8c>
 8003066:	f506 4678 	add.w	r6, r6, #63488	; 0xf800
 800306a:	42b2      	cmp	r2, r6
 800306c:	d01e      	beq.n	80030ac <HAL_TIM_Base_Init+0x8c>
 800306e:	f506 5670 	add.w	r6, r6, #15360	; 0x3c00
 8003072:	42b2      	cmp	r2, r6
 8003074:	d013      	beq.n	800309e <HAL_TIM_Base_Init+0x7e>
 8003076:	f506 6680 	add.w	r6, r6, #1024	; 0x400
 800307a:	42b2      	cmp	r2, r6
 800307c:	d00f      	beq.n	800309e <HAL_TIM_Base_Init+0x7e>
 800307e:	f506 6680 	add.w	r6, r6, #1024	; 0x400
 8003082:	42b2      	cmp	r2, r6
 8003084:	d00b      	beq.n	800309e <HAL_TIM_Base_Init+0x7e>
 8003086:	f5a6 3698 	sub.w	r6, r6, #77824	; 0x13000
 800308a:	42b2      	cmp	r2, r6
 800308c:	d007      	beq.n	800309e <HAL_TIM_Base_Init+0x7e>
 800308e:	f506 6680 	add.w	r6, r6, #1024	; 0x400
 8003092:	42b2      	cmp	r2, r6
 8003094:	d003      	beq.n	800309e <HAL_TIM_Base_Init+0x7e>
 8003096:	f506 6680 	add.w	r6, r6, #1024	; 0x400
 800309a:	42b2      	cmp	r2, r6
 800309c:	d138      	bne.n	8003110 <HAL_TIM_Base_Init+0xf0>
 800309e:	6926      	ldr	r6, [r4, #16]
 80030a0:	e033      	b.n	800310a <HAL_TIM_Base_Init+0xea>
 80030a2:	f880 203c 	strb.w	r2, [r0, #60]	; 0x3c
 80030a6:	f7fe fbd3 	bl	8001850 <HAL_TIM_Base_MspInit>
 80030aa:	e7c2      	b.n	8003032 <HAL_TIM_Base_Init+0x12>
 80030ac:	68a6      	ldr	r6, [r4, #8]
 80030ae:	4f1d      	ldr	r7, [pc, #116]	; (8003124 <HAL_TIM_Base_Init+0x104>)
 80030b0:	f023 0370 	bic.w	r3, r3, #112	; 0x70
 80030b4:	4333      	orrs	r3, r6
 80030b6:	6926      	ldr	r6, [r4, #16]
 80030b8:	f423 7340 	bic.w	r3, r3, #768	; 0x300
 80030bc:	4333      	orrs	r3, r6
 80030be:	f023 0380 	bic.w	r3, r3, #128	; 0x80
 80030c2:	432b      	orrs	r3, r5
 80030c4:	42ba      	cmp	r2, r7
 80030c6:	6013      	str	r3, [r2, #0]
 80030c8:	62d0      	str	r0, [r2, #44]	; 0x2c
 80030ca:	6291      	str	r1, [r2, #40]	; 0x28
 80030cc:	d101      	bne.n	80030d2 <HAL_TIM_Base_Init+0xb2>
 80030ce:	6963      	ldr	r3, [r4, #20]
 80030d0:	6313      	str	r3, [r2, #48]	; 0x30
 80030d2:	2301      	movs	r3, #1
 80030d4:	6153      	str	r3, [r2, #20]
 80030d6:	2000      	movs	r0, #0
 80030d8:	f884 303d 	strb.w	r3, [r4, #61]	; 0x3d
 80030dc:	bdf8      	pop	{r3, r4, r5, r6, r7, pc}
 80030de:	2001      	movs	r0, #1
 80030e0:	4770      	bx	lr
 80030e2:	68a7      	ldr	r7, [r4, #8]
 80030e4:	6926      	ldr	r6, [r4, #16]
 80030e6:	f023 0370 	bic.w	r3, r3, #112	; 0x70
 80030ea:	433b      	orrs	r3, r7
 80030ec:	f423 7340 	bic.w	r3, r3, #768	; 0x300
 80030f0:	4333      	orrs	r3, r6
 80030f2:	f023 0380 	bic.w	r3, r3, #128	; 0x80
 80030f6:	432b      	orrs	r3, r5
 80030f8:	6013      	str	r3, [r2, #0]
 80030fa:	62d0      	str	r0, [r2, #44]	; 0x2c
 80030fc:	6291      	str	r1, [r2, #40]	; 0x28
 80030fe:	e7e6      	b.n	80030ce <HAL_TIM_Base_Init+0xae>
 8003100:	68a7      	ldr	r7, [r4, #8]
 8003102:	6926      	ldr	r6, [r4, #16]
 8003104:	f023 0370 	bic.w	r3, r3, #112	; 0x70
 8003108:	433b      	orrs	r3, r7
 800310a:	f423 7340 	bic.w	r3, r3, #768	; 0x300
 800310e:	4333      	orrs	r3, r6
 8003110:	f023 0380 	bic.w	r3, r3, #128	; 0x80
 8003114:	432b      	orrs	r3, r5
 8003116:	6013      	str	r3, [r2, #0]
 8003118:	62d0      	str	r0, [r2, #44]	; 0x2c
 800311a:	6291      	str	r1, [r2, #40]	; 0x28
 800311c:	e7d9      	b.n	80030d2 <HAL_TIM_Base_Init+0xb2>
 800311e:	bf00      	nop
 8003120:	40010000 	.word	0x40010000
 8003124:	40010400 	.word	0x40010400

08003128 <HAL_TIM_OC_MspInit>:
 8003128:	4770      	bx	lr
 800312a:	bf00      	nop

0800312c <HAL_TIM_OC_Init>:
 800312c:	2800      	cmp	r0, #0
 800312e:	d05c      	beq.n	80031ea <HAL_TIM_OC_Init+0xbe>
 8003130:	b5f8      	push	{r3, r4, r5, r6, r7, lr}
 8003132:	f890 303d 	ldrb.w	r3, [r0, #61]	; 0x3d
 8003136:	4604      	mov	r4, r0
 8003138:	f003 02ff 	and.w	r2, r3, #255	; 0xff
 800313c:	b3bb      	cbz	r3, 80031ae <HAL_TIM_OC_Init+0x82>
 800313e:	6822      	ldr	r2, [r4, #0]
 8003140:	4e3a      	ldr	r6, [pc, #232]	; (800322c <HAL_TIM_OC_Init+0x100>)
 8003142:	69a5      	ldr	r5, [r4, #24]
 8003144:	68e0      	ldr	r0, [r4, #12]
 8003146:	6861      	ldr	r1, [r4, #4]
 8003148:	2302      	movs	r3, #2
 800314a:	f884 303d 	strb.w	r3, [r4, #61]	; 0x3d
 800314e:	42b2      	cmp	r2, r6
 8003150:	6813      	ldr	r3, [r2, #0]
 8003152:	d04c      	beq.n	80031ee <HAL_TIM_OC_Init+0xc2>
 8003154:	f1b2 4f80 	cmp.w	r2, #1073741824	; 0x40000000
 8003158:	d058      	beq.n	800320c <HAL_TIM_OC_Init+0xe0>
 800315a:	f5a6 467c 	sub.w	r6, r6, #64512	; 0xfc00
 800315e:	42b2      	cmp	r2, r6
 8003160:	d02a      	beq.n	80031b8 <HAL_TIM_OC_Init+0x8c>
 8003162:	f506 6680 	add.w	r6, r6, #1024	; 0x400
 8003166:	42b2      	cmp	r2, r6
 8003168:	d026      	beq.n	80031b8 <HAL_TIM_OC_Init+0x8c>
 800316a:	f506 6680 	add.w	r6, r6, #1024	; 0x400
 800316e:	42b2      	cmp	r2, r6
 8003170:	d022      	beq.n	80031b8 <HAL_TIM_OC_Init+0x8c>
 8003172:	f506 4678 	add.w	r6, r6, #63488	; 0xf800
 8003176:	42b2      	cmp	r2, r6
 8003178:	d01e      	beq.n	80031b8 <HAL_TIM_OC_Init+0x8c>
 800317a:	f506 5670 	add.w	r6, r6, #15360	; 0x3c00
 800317e:	42b2      	cmp	r2, r6
 8003180:	d013      	beq.n	80031aa <HAL_TIM_OC_Init+0x7e>
 8003182:	f506 6680 	add.w	r6, r6, #1024	; 0x400
 8003186:	42b2      	cmp	r2, r6
 8003188:	d00f      	beq.n	80031aa <HAL_TIM_OC_Init+0x7e>
 800318a:	f506 6680 	add.w	r6, r6, #1024	; 0x400
 800318e:	42b2      	cmp	r2, r6
 8003190:	d00b      	beq.n	80031aa <HAL_TIM_OC_Init+0x7e>
 8003192:	f5a6 3698 	sub.w	r6, r6, #77824	; 0x13000
 8003196:	42b2      	cmp	r2, r6
 8003198:	d007      	beq.n	80031aa <HAL_TIM_OC_Init+0x7e>
 800319a:	f506 6680 	add.w	r6, r6, #1024	; 0x400
 800319e:	42b2      	cmp	r2, r6
 80031a0:	d003      	beq.n	80031aa <HAL_TIM_OC_Init+0x7e>
 80031a2:	f506 6680 	add.w	r6, r6, #1024	; 0x400
 80031a6:	42b2      	cmp	r2, r6
 80031a8:	d138      	bne.n	800321c <HAL_TIM_OC_Init+0xf0>
 80031aa:	6926      	ldr	r6, [r4, #16]
 80031ac:	e033      	b.n	8003216 <HAL_TIM_OC_Init+0xea>
 80031ae:	f880 203c 	strb.w	r2, [r0, #60]	; 0x3c
 80031b2:	f7ff ffb9 	bl	8003128 <HAL_TIM_OC_MspInit>
 80031b6:	e7c2      	b.n	800313e <HAL_TIM_OC_Init+0x12>
 80031b8:	68a6      	ldr	r6, [r4, #8]
 80031ba:	4f1d      	ldr	r7, [pc, #116]	; (8003230 <HAL_TIM_OC_Init+0x104>)
 80031bc:	f023 0370 	bic.w	r3, r3, #112	; 0x70
 80031c0:	4333      	orrs	r3, r6
 80031c2:	6926      	ldr	r6, [r4, #16]
 80031c4:	f423 7340 	bic.w	r3, r3, #768	; 0x300
 80031c8:	4333      	orrs	r3, r6
 80031ca:	f023 0380 	bic.w	r3, r3, #128	; 0x80
 80031ce:	432b      	orrs	r3, r5
 80031d0:	42ba      	cmp	r2, r7
 80031d2:	6013      	str	r3, [r2, #0]
 80031d4:	62d0      	str	r0, [r2, #44]	; 0x2c
 80031d6:	6291      	str	r1, [r2, #40]	; 0x28
 80031d8:	d101      	bne.n	80031de <HAL_TIM_OC_Init+0xb2>
 80031da:	6963      	ldr	r3, [r4, #20]
 80031dc:	6313      	str	r3, [r2, #48]	; 0x30
 80031de:	2301      	movs	r3, #1
 80031e0:	6153      	str	r3, [r2, #20]
 80031e2:	2000      	movs	r0, #0
 80031e4:	f884 303d 	strb.w	r3, [r4, #61]	; 0x3d
 80031e8:	bdf8      	pop	{r3, r4, r5, r6, r7, pc}
 80031ea:	2001      	movs	r0, #1
 80031ec:	4770      	bx	lr
 80031ee:	68a7      	ldr	r7, [r4, #8]
 80031f0:	6926      	ldr	r6, [r4, #16]
 80031f2:	f023 0370 	bic.w	r3, r3, #112	; 0x70
 80031f6:	433b      	orrs	r3, r7
 80031f8:	f423 7340 	bic.w	r3, r3, #768	; 0x300
 80031fc:	4333      	orrs	r3, r6
 80031fe:	f023 0380 	bic.w	r3, r3, #128	; 0x80
 8003202:	432b      	orrs	r3, r5
 8003204:	6013      	str	r3, [r2, #0]
 8003206:	62d0      	str	r0, [r2, #44]	; 0x2c
 8003208:	6291      	str	r1, [r2, #40]	; 0x28
 800320a:	e7e6      	b.n	80031da <HAL_TIM_OC_Init+0xae>
 800320c:	68a7      	ldr	r7, [r4, #8]
 800320e:	6926      	ldr	r6, [r4, #16]
 8003210:	f023 0370 	bic.w	r3, r3, #112	; 0x70
 8003214:	433b      	orrs	r3, r7
 8003216:	f423 7340 	bic.w	r3, r3, #768	; 0x300
 800321a:	4333      	orrs	r3, r6
 800321c:	f023 0380 	bic.w	r3, r3, #128	; 0x80
 8003220:	432b      	orrs	r3, r5
 8003222:	6013      	str	r3, [r2, #0]
 8003224:	62d0      	str	r0, [r2, #44]	; 0x2c
 8003226:	6291      	str	r1, [r2, #40]	; 0x28
 8003228:	e7d9      	b.n	80031de <HAL_TIM_OC_Init+0xb2>
 800322a:	bf00      	nop
 800322c:	40010000 	.word	0x40010000
 8003230:	40010400 	.word	0x40010400

08003234 <HAL_TIM_PWM_MspInit>:
 8003234:	4770      	bx	lr
 8003236:	bf00      	nop

08003238 <HAL_TIM_PWM_Init>:
 8003238:	2800      	cmp	r0, #0
 800323a:	d05c      	beq.n	80032f6 <HAL_TIM_PWM_Init+0xbe>
 800323c:	b5f8      	push	{r3, r4, r5, r6, r7, lr}
 800323e:	f890 303d 	ldrb.w	r3, [r0, #61]	; 0x3d
 8003242:	4604      	mov	r4, r0
 8003244:	f003 02ff 	and.w	r2, r3, #255	; 0xff
 8003248:	b3bb      	cbz	r3, 80032ba <HAL_TIM_PWM_Init+0x82>
 800324a:	6822      	ldr	r2, [r4, #0]
 800324c:	4e3a      	ldr	r6, [pc, #232]	; (8003338 <HAL_TIM_PWM_Init+0x100>)
 800324e:	69a5      	ldr	r5, [r4, #24]
 8003250:	68e0      	ldr	r0, [r4, #12]
 8003252:	6861      	ldr	r1, [r4, #4]
 8003254:	2302      	movs	r3, #2
 8003256:	f884 303d 	strb.w	r3, [r4, #61]	; 0x3d
 800325a:	42b2      	cmp	r2, r6
 800325c:	6813      	ldr	r3, [r2, #0]
 800325e:	d04c      	beq.n	80032fa <HAL_TIM_PWM_Init+0xc2>
 8003260:	f1b2 4f80 	cmp.w	r2, #1073741824	; 0x40000000
 8003264:	d058      	beq.n	8003318 <HAL_TIM_PWM_Init+0xe0>
 8003266:	f5a6 467c 	sub.w	r6, r6, #64512	; 0xfc00
 800326a:	42b2      	cmp	r2, r6
 800326c:	d02a      	beq.n	80032c4 <HAL_TIM_PWM_Init+0x8c>
 800326e:	f506 6680 	add.w	r6, r6, #1024	; 0x400
 8003272:	42b2      	cmp	r2, r6
 8003274:	d026      	beq.n	80032c4 <HAL_TIM_PWM_Init+0x8c>
 8003276:	f506 6680 	add.w	r6, r6, #1024	; 0x400
 800327a:	42b2      	cmp	r2, r6
 800327c:	d022      	beq.n	80032c4 <HAL_TIM_PWM_Init+0x8c>
 800327e:	f506 4678 	add.w	r6, r6, #63488	; 0xf800
 8003282:	42b2      	cmp	r2, r6
 8003284:	d01e      	beq.n	80032c4 <HAL_TIM_PWM_Init+0x8c>
 8003286:	f506 5670 	add.w	r6, r6, #15360	; 0x3c00
 800328a:	42b2      	cmp	r2, r6
 800328c:	d013      	beq.n	80032b6 <HAL_TIM_PWM_Init+0x7e>
 800328e:	f506 6680 	add.w	r6, r6, #1024	; 0x400
 8003292:	42b2      	cmp	r2, r6
 8003294:	d00f      	beq.n	80032b6 <HAL_TIM_PWM_Init+0x7e>
 8003296:	f506 6680 	add.w	r6, r6, #1024	; 0x400
 800329a:	42b2      	cmp	r2, r6
 800329c:	d00b      	beq.n	80032b6 <HAL_TIM_PWM_Init+0x7e>
 800329e:	f5a6 3698 	sub.w	r6, r6, #77824	; 0x13000
 80032a2:	42b2      	cmp	r2, r6
 80032a4:	d007      	beq.n	80032b6 <HAL_TIM_PWM_Init+0x7e>
 80032a6:	f506 6680 	add.w	r6, r6, #1024	; 0x400
 80032aa:	42b2      	cmp	r2, r6
 80032ac:	d003      	beq.n	80032b6 <HAL_TIM_PWM_Init+0x7e>
 80032ae:	f506 6680 	add.w	r6, r6, #1024	; 0x400
 80032b2:	42b2      	cmp	r2, r6
 80032b4:	d138      	bne.n	8003328 <HAL_TIM_PWM_Init+0xf0>
 80032b6:	6926      	ldr	r6, [r4, #16]
 80032b8:	e033      	b.n	8003322 <HAL_TIM_PWM_Init+0xea>
 80032ba:	f880 203c 	strb.w	r2, [r0, #60]	; 0x3c
 80032be:	f7ff ffb9 	bl	8003234 <HAL_TIM_PWM_MspInit>
 80032c2:	e7c2      	b.n	800324a <HAL_TIM_PWM_Init+0x12>
 80032c4:	68a6      	ldr	r6, [r4, #8]
 80032c6:	4f1d      	ldr	r7, [pc, #116]	; (800333c <HAL_TIM_PWM_Init+0x104>)
 80032c8:	f023 0370 	bic.w	r3, r3, #112	; 0x70
 80032cc:	4333      	orrs	r3, r6
 80032ce:	6926      	ldr	r6, [r4, #16]
 80032d0:	f423 7340 	bic.w	r3, r3, #768	; 0x300
 80032d4:	4333      	orrs	r3, r6
 80032d6:	f023 0380 	bic.w	r3, r3, #128	; 0x80
 80032da:	432b      	orrs	r3, r5
 80032dc:	42ba      	cmp	r2, r7
 80032de:	6013      	str	r3, [r2, #0]
 80032e0:	62d0      	str	r0, [r2, #44]	; 0x2c
 80032e2:	6291      	str	r1, [r2, #40]	; 0x28
 80032e4:	d101      	bne.n	80032ea <HAL_TIM_PWM_Init+0xb2>
 80032e6:	6963      	ldr	r3, [r4, #20]
 80032e8:	6313      	str	r3, [r2, #48]	; 0x30
 80032ea:	2301      	movs	r3, #1
 80032ec:	6153      	str	r3, [r2, #20]
 80032ee:	2000      	movs	r0, #0
 80032f0:	f884 303d 	strb.w	r3, [r4, #61]	; 0x3d
 80032f4:	bdf8      	pop	{r3, r4, r5, r6, r7, pc}
 80032f6:	2001      	movs	r0, #1
 80032f8:	4770      	bx	lr
 80032fa:	68a7      	ldr	r7, [r4, #8]
 80032fc:	6926      	ldr	r6, [r4, #16]
 80032fe:	f023 0370 	bic.w	r3, r3, #112	; 0x70
 8003302:	433b      	orrs	r3, r7
 8003304:	f423 7340 	bic.w	r3, r3, #768	; 0x300
 8003308:	4333      	orrs	r3, r6
 800330a:	f023 0380 	bic.w	r3, r3, #128	; 0x80
 800330e:	432b      	orrs	r3, r5
 8003310:	6013      	str	r3, [r2, #0]
 8003312:	62d0      	str	r0, [r2, #44]	; 0x2c
 8003314:	6291      	str	r1, [r2, #40]	; 0x28
 8003316:	e7e6      	b.n	80032e6 <HAL_TIM_PWM_Init+0xae>
 8003318:	68a7      	ldr	r7, [r4, #8]
 800331a:	6926      	ldr	r6, [r4, #16]
 800331c:	f023 0370 	bic.w	r3, r3, #112	; 0x70
 8003320:	433b      	orrs	r3, r7
 8003322:	f423 7340 	bic.w	r3, r3, #768	; 0x300
 8003326:	4333      	orrs	r3, r6
 8003328:	f023 0380 	bic.w	r3, r3, #128	; 0x80
 800332c:	432b      	orrs	r3, r5
 800332e:	6013      	str	r3, [r2, #0]
 8003330:	62d0      	str	r0, [r2, #44]	; 0x2c
 8003332:	6291      	str	r1, [r2, #40]	; 0x28
 8003334:	e7d9      	b.n	80032ea <HAL_TIM_PWM_Init+0xb2>
 8003336:	bf00      	nop
 8003338:	40010000 	.word	0x40010000
 800333c:	40010400 	.word	0x40010400

08003340 <HAL_TIM_Encoder_Init>:
 8003340:	2800      	cmp	r0, #0
 8003342:	f000 8096 	beq.w	8003472 <HAL_TIM_Encoder_Init+0x132>
 8003346:	f890 303d 	ldrb.w	r3, [r0, #61]	; 0x3d
 800334a:	e92d 41f0 	stmdb	sp!, {r4, r5, r6, r7, r8, lr}
 800334e:	f003 02ff 	and.w	r2, r3, #255	; 0xff
 8003352:	4604      	mov	r4, r0
 8003354:	460d      	mov	r5, r1
 8003356:	2b00      	cmp	r3, #0
 8003358:	d03f      	beq.n	80033da <HAL_TIM_Encoder_Init+0x9a>
 800335a:	6823      	ldr	r3, [r4, #0]
 800335c:	4e56      	ldr	r6, [pc, #344]	; (80034b8 <HAL_TIM_Encoder_Init+0x178>)
 800335e:	f8d4 c018 	ldr.w	ip, [r4, #24]
 8003362:	68e0      	ldr	r0, [r4, #12]
 8003364:	6861      	ldr	r1, [r4, #4]
 8003366:	2202      	movs	r2, #2
 8003368:	f884 203d 	strb.w	r2, [r4, #61]	; 0x3d
 800336c:	689a      	ldr	r2, [r3, #8]
 800336e:	f422 4280 	bic.w	r2, r2, #16384	; 0x4000
 8003372:	f022 0207 	bic.w	r2, r2, #7
 8003376:	609a      	str	r2, [r3, #8]
 8003378:	42b3      	cmp	r3, r6
 800337a:	681a      	ldr	r2, [r3, #0]
 800337c:	d07b      	beq.n	8003476 <HAL_TIM_Encoder_Init+0x136>
 800337e:	f1b3 4f80 	cmp.w	r3, #1073741824	; 0x40000000
 8003382:	f000 8088 	beq.w	8003496 <HAL_TIM_Encoder_Init+0x156>
 8003386:	f5a6 467c 	sub.w	r6, r6, #64512	; 0xfc00
 800338a:	42b3      	cmp	r3, r6
 800338c:	d02a      	beq.n	80033e4 <HAL_TIM_Encoder_Init+0xa4>
 800338e:	f506 6680 	add.w	r6, r6, #1024	; 0x400
 8003392:	42b3      	cmp	r3, r6
 8003394:	d026      	beq.n	80033e4 <HAL_TIM_Encoder_Init+0xa4>
 8003396:	f506 6680 	add.w	r6, r6, #1024	; 0x400
 800339a:	42b3      	cmp	r3, r6
 800339c:	d022      	beq.n	80033e4 <HAL_TIM_Encoder_Init+0xa4>
 800339e:	f506 4678 	add.w	r6, r6, #63488	; 0xf800
 80033a2:	42b3      	cmp	r3, r6
 80033a4:	d01e      	beq.n	80033e4 <HAL_TIM_Encoder_Init+0xa4>
 80033a6:	f506 5670 	add.w	r6, r6, #15360	; 0x3c00
 80033aa:	42b3      	cmp	r3, r6
 80033ac:	d013      	beq.n	80033d6 <HAL_TIM_Encoder_Init+0x96>
 80033ae:	f506 6680 	add.w	r6, r6, #1024	; 0x400
 80033b2:	42b3      	cmp	r3, r6
 80033b4:	d00f      	beq.n	80033d6 <HAL_TIM_Encoder_Init+0x96>
 80033b6:	f506 6680 	add.w	r6, r6, #1024	; 0x400
 80033ba:	42b3      	cmp	r3, r6
 80033bc:	d00b      	beq.n	80033d6 <HAL_TIM_Encoder_Init+0x96>
 80033be:	f5a6 3698 	sub.w	r6, r6, #77824	; 0x13000
 80033c2:	42b3      	cmp	r3, r6
 80033c4:	d007      	beq.n	80033d6 <HAL_TIM_Encoder_Init+0x96>
 80033c6:	f506 6680 	add.w	r6, r6, #1024	; 0x400
 80033ca:	42b3      	cmp	r3, r6
 80033cc:	d003      	beq.n	80033d6 <HAL_TIM_Encoder_Init+0x96>
 80033ce:	f506 6680 	add.w	r6, r6, #1024	; 0x400
 80033d2:	42b3      	cmp	r3, r6
 80033d4:	d167      	bne.n	80034a6 <HAL_TIM_Encoder_Init+0x166>
 80033d6:	6926      	ldr	r6, [r4, #16]
 80033d8:	e062      	b.n	80034a0 <HAL_TIM_Encoder_Init+0x160>
 80033da:	f880 203c 	strb.w	r2, [r0, #60]	; 0x3c
 80033de:	f7fe f9c5 	bl	800176c <HAL_TIM_Encoder_MspInit>
 80033e2:	e7ba      	b.n	800335a <HAL_TIM_Encoder_Init+0x1a>
 80033e4:	68a6      	ldr	r6, [r4, #8]
 80033e6:	4f35      	ldr	r7, [pc, #212]	; (80034bc <HAL_TIM_Encoder_Init+0x17c>)
 80033e8:	f022 0270 	bic.w	r2, r2, #112	; 0x70
 80033ec:	4332      	orrs	r2, r6
 80033ee:	6926      	ldr	r6, [r4, #16]
 80033f0:	f422 7240 	bic.w	r2, r2, #768	; 0x300
 80033f4:	4332      	orrs	r2, r6
 80033f6:	f022 0280 	bic.w	r2, r2, #128	; 0x80
 80033fa:	ea42 020c 	orr.w	r2, r2, ip
 80033fe:	42bb      	cmp	r3, r7
 8003400:	601a      	str	r2, [r3, #0]
 8003402:	62d8      	str	r0, [r3, #44]	; 0x2c
 8003404:	6299      	str	r1, [r3, #40]	; 0x28
 8003406:	d101      	bne.n	800340c <HAL_TIM_Encoder_Init+0xcc>
 8003408:	6962      	ldr	r2, [r4, #20]
 800340a:	631a      	str	r2, [r3, #48]	; 0x30
 800340c:	f04f 0c01 	mov.w	ip, #1
 8003410:	f8c3 c014 	str.w	ip, [r3, #20]
 8003414:	6898      	ldr	r0, [r3, #8]
 8003416:	699e      	ldr	r6, [r3, #24]
 8003418:	69af      	ldr	r7, [r5, #24]
 800341a:	68a9      	ldr	r1, [r5, #8]
 800341c:	692a      	ldr	r2, [r5, #16]
 800341e:	f8d5 e000 	ldr.w	lr, [r5]
 8003422:	f426 7840 	bic.w	r8, r6, #768	; 0x300
 8003426:	69ee      	ldr	r6, [r5, #28]
 8003428:	ea41 2107 	orr.w	r1, r1, r7, lsl #8
 800342c:	0112      	lsls	r2, r2, #4
 800342e:	68ef      	ldr	r7, [r5, #12]
 8003430:	ea42 2206 	orr.w	r2, r2, r6, lsl #8
 8003434:	433a      	orrs	r2, r7
 8003436:	6a2f      	ldr	r7, [r5, #32]
 8003438:	6a1e      	ldr	r6, [r3, #32]
 800343a:	f028 0803 	bic.w	r8, r8, #3
 800343e:	ea41 0108 	orr.w	r1, r1, r8
 8003442:	ea42 3207 	orr.w	r2, r2, r7, lsl #12
 8003446:	696f      	ldr	r7, [r5, #20]
 8003448:	686d      	ldr	r5, [r5, #4]
 800344a:	f421 417c 	bic.w	r1, r1, #64512	; 0xfc00
 800344e:	f021 01fc 	bic.w	r1, r1, #252	; 0xfc
 8003452:	f026 06aa 	bic.w	r6, r6, #170	; 0xaa
 8003456:	ea45 1507 	orr.w	r5, r5, r7, lsl #4
 800345a:	ea40 000e 	orr.w	r0, r0, lr
 800345e:	430a      	orrs	r2, r1
 8003460:	4335      	orrs	r5, r6
 8003462:	6098      	str	r0, [r3, #8]
 8003464:	619a      	str	r2, [r3, #24]
 8003466:	2000      	movs	r0, #0
 8003468:	621d      	str	r5, [r3, #32]
 800346a:	f884 c03d 	strb.w	ip, [r4, #61]	; 0x3d
 800346e:	e8bd 81f0 	ldmia.w	sp!, {r4, r5, r6, r7, r8, pc}
 8003472:	2001      	movs	r0, #1
 8003474:	4770      	bx	lr
 8003476:	68a7      	ldr	r7, [r4, #8]
 8003478:	6926      	ldr	r6, [r4, #16]
 800347a:	f022 0270 	bic.w	r2, r2, #112	; 0x70
 800347e:	433a      	orrs	r2, r7
 8003480:	f422 7240 	bic.w	r2, r2, #768	; 0x300
 8003484:	4332      	orrs	r2, r6
 8003486:	f022 0280 	bic.w	r2, r2, #128	; 0x80
 800348a:	ea42 020c 	orr.w	r2, r2, ip
 800348e:	601a      	str	r2, [r3, #0]
 8003490:	62d8      	str	r0, [r3, #44]	; 0x2c
 8003492:	6299      	str	r1, [r3, #40]	; 0x28
 8003494:	e7b8      	b.n	8003408 <HAL_TIM_Encoder_Init+0xc8>
 8003496:	68a7      	ldr	r7, [r4, #8]
 8003498:	6926      	ldr	r6, [r4, #16]
 800349a:	f022 0270 	bic.w	r2, r2, #112	; 0x70
 800349e:	433a      	orrs	r2, r7
 80034a0:	f422 7240 	bic.w	r2, r2, #768	; 0x300
 80034a4:	4332      	orrs	r2, r6
 80034a6:	f022 0280 	bic.w	r2, r2, #128	; 0x80
 80034aa:	ea42 020c 	orr.w	r2, r2, ip
 80034ae:	601a      	str	r2, [r3, #0]
 80034b0:	62d8      	str	r0, [r3, #44]	; 0x2c
 80034b2:	6299      	str	r1, [r3, #40]	; 0x28
 80034b4:	e7aa      	b.n	800340c <HAL_TIM_Encoder_Init+0xcc>
 80034b6:	bf00      	nop
 80034b8:	40010000 	.word	0x40010000
 80034bc:	40010400 	.word	0x40010400

080034c0 <HAL_TIM_OC_ConfigChannel>:
 80034c0:	f890 303c 	ldrb.w	r3, [r0, #60]	; 0x3c
 80034c4:	2b01      	cmp	r3, #1
 80034c6:	f000 809a 	beq.w	80035fe <HAL_TIM_OC_ConfigChannel+0x13e>
 80034ca:	b4f0      	push	{r4, r5, r6, r7}
 80034cc:	2302      	movs	r3, #2
 80034ce:	2401      	movs	r4, #1
 80034d0:	f880 403c 	strb.w	r4, [r0, #60]	; 0x3c
 80034d4:	f880 303d 	strb.w	r3, [r0, #61]	; 0x3d
 80034d8:	2a0c      	cmp	r2, #12
 80034da:	d829      	bhi.n	8003530 <HAL_TIM_OC_ConfigChannel+0x70>
 80034dc:	e8df f002 	tbb	[pc, r2]
 80034e0:	28282807 	.word	0x28282807
 80034e4:	28282851 	.word	0x28282851
 80034e8:	28282870 	.word	0x28282870
 80034ec:	31          	.byte	0x31
 80034ed:	00          	.byte	0x00
 80034ee:	6803      	ldr	r3, [r0, #0]
 80034f0:	f8d1 c008 	ldr.w	ip, [r1, #8]
 80034f4:	6a1d      	ldr	r5, [r3, #32]
 80034f6:	680f      	ldr	r7, [r1, #0]
 80034f8:	4e5b      	ldr	r6, [pc, #364]	; (8003668 <HAL_TIM_OC_ConfigChannel+0x1a8>)
 80034fa:	f025 0501 	bic.w	r5, r5, #1
 80034fe:	621d      	str	r5, [r3, #32]
 8003500:	6a1a      	ldr	r2, [r3, #32]
 8003502:	685d      	ldr	r5, [r3, #4]
 8003504:	699c      	ldr	r4, [r3, #24]
 8003506:	f022 0202 	bic.w	r2, r2, #2
 800350a:	f024 0473 	bic.w	r4, r4, #115	; 0x73
 800350e:	42b3      	cmp	r3, r6
 8003510:	ea42 020c 	orr.w	r2, r2, ip
 8003514:	ea44 0407 	orr.w	r4, r4, r7
 8003518:	f000 8089 	beq.w	800362e <HAL_TIM_OC_ConfigChannel+0x16e>
 800351c:	f506 6680 	add.w	r6, r6, #1024	; 0x400
 8003520:	42b3      	cmp	r3, r6
 8003522:	f000 8084 	beq.w	800362e <HAL_TIM_OC_ConfigChannel+0x16e>
 8003526:	6849      	ldr	r1, [r1, #4]
 8003528:	605d      	str	r5, [r3, #4]
 800352a:	619c      	str	r4, [r3, #24]
 800352c:	6359      	str	r1, [r3, #52]	; 0x34
 800352e:	621a      	str	r2, [r3, #32]
 8003530:	2300      	movs	r3, #0
 8003532:	2201      	movs	r2, #1
 8003534:	f880 203d 	strb.w	r2, [r0, #61]	; 0x3d
 8003538:	f880 303c 	strb.w	r3, [r0, #60]	; 0x3c
 800353c:	bcf0      	pop	{r4, r5, r6, r7}
 800353e:	4618      	mov	r0, r3
 8003540:	4770      	bx	lr
 8003542:	6803      	ldr	r3, [r0, #0]
 8003544:	f8d1 c008 	ldr.w	ip, [r1, #8]
 8003548:	6a1d      	ldr	r5, [r3, #32]
 800354a:	680f      	ldr	r7, [r1, #0]
 800354c:	4e46      	ldr	r6, [pc, #280]	; (8003668 <HAL_TIM_OC_ConfigChannel+0x1a8>)
 800354e:	f425 5580 	bic.w	r5, r5, #4096	; 0x1000
 8003552:	621d      	str	r5, [r3, #32]
 8003554:	6a1a      	ldr	r2, [r3, #32]
 8003556:	685d      	ldr	r5, [r3, #4]
 8003558:	69dc      	ldr	r4, [r3, #28]
 800355a:	f422 5200 	bic.w	r2, r2, #8192	; 0x2000
 800355e:	f424 44e6 	bic.w	r4, r4, #29440	; 0x7300
 8003562:	42b3      	cmp	r3, r6
 8003564:	ea42 320c 	orr.w	r2, r2, ip, lsl #12
 8003568:	ea44 2407 	orr.w	r4, r4, r7, lsl #8
 800356c:	d049      	beq.n	8003602 <HAL_TIM_OC_ConfigChannel+0x142>
 800356e:	f506 6680 	add.w	r6, r6, #1024	; 0x400
 8003572:	42b3      	cmp	r3, r6
 8003574:	d045      	beq.n	8003602 <HAL_TIM_OC_ConfigChannel+0x142>
 8003576:	6849      	ldr	r1, [r1, #4]
 8003578:	605d      	str	r5, [r3, #4]
 800357a:	61dc      	str	r4, [r3, #28]
 800357c:	6419      	str	r1, [r3, #64]	; 0x40
 800357e:	621a      	str	r2, [r3, #32]
 8003580:	e7d6      	b.n	8003530 <HAL_TIM_OC_ConfigChannel+0x70>
 8003582:	6803      	ldr	r3, [r0, #0]
 8003584:	688f      	ldr	r7, [r1, #8]
 8003586:	6a1d      	ldr	r5, [r3, #32]
 8003588:	680e      	ldr	r6, [r1, #0]
 800358a:	f8df c0dc 	ldr.w	ip, [pc, #220]	; 8003668 <HAL_TIM_OC_ConfigChannel+0x1a8>
 800358e:	f025 0510 	bic.w	r5, r5, #16
 8003592:	621d      	str	r5, [r3, #32]
 8003594:	6a1a      	ldr	r2, [r3, #32]
 8003596:	685d      	ldr	r5, [r3, #4]
 8003598:	699c      	ldr	r4, [r3, #24]
 800359a:	f022 0220 	bic.w	r2, r2, #32
 800359e:	f424 44e6 	bic.w	r4, r4, #29440	; 0x7300
 80035a2:	4563      	cmp	r3, ip
 80035a4:	ea42 1207 	orr.w	r2, r2, r7, lsl #4
 80035a8:	ea44 2406 	orr.w	r4, r4, r6, lsl #8
 80035ac:	d04c      	beq.n	8003648 <HAL_TIM_OC_ConfigChannel+0x188>
 80035ae:	4f2f      	ldr	r7, [pc, #188]	; (800366c <HAL_TIM_OC_ConfigChannel+0x1ac>)
 80035b0:	42bb      	cmp	r3, r7
 80035b2:	d049      	beq.n	8003648 <HAL_TIM_OC_ConfigChannel+0x188>
 80035b4:	6849      	ldr	r1, [r1, #4]
 80035b6:	605d      	str	r5, [r3, #4]
 80035b8:	619c      	str	r4, [r3, #24]
 80035ba:	6399      	str	r1, [r3, #56]	; 0x38
 80035bc:	621a      	str	r2, [r3, #32]
 80035be:	e7b7      	b.n	8003530 <HAL_TIM_OC_ConfigChannel+0x70>
 80035c0:	6803      	ldr	r3, [r0, #0]
 80035c2:	688f      	ldr	r7, [r1, #8]
 80035c4:	6a1d      	ldr	r5, [r3, #32]
 80035c6:	680e      	ldr	r6, [r1, #0]
 80035c8:	f8df c09c 	ldr.w	ip, [pc, #156]	; 8003668 <HAL_TIM_OC_ConfigChannel+0x1a8>
 80035cc:	f425 7580 	bic.w	r5, r5, #256	; 0x100
 80035d0:	621d      	str	r5, [r3, #32]
 80035d2:	6a1a      	ldr	r2, [r3, #32]
 80035d4:	685d      	ldr	r5, [r3, #4]
 80035d6:	69dc      	ldr	r4, [r3, #28]
 80035d8:	f422 7200 	bic.w	r2, r2, #512	; 0x200
 80035dc:	f024 0473 	bic.w	r4, r4, #115	; 0x73
 80035e0:	4563      	cmp	r3, ip
 80035e2:	ea42 2207 	orr.w	r2, r2, r7, lsl #8
 80035e6:	ea44 0406 	orr.w	r4, r4, r6
 80035ea:	d010      	beq.n	800360e <HAL_TIM_OC_ConfigChannel+0x14e>
 80035ec:	4f1f      	ldr	r7, [pc, #124]	; (800366c <HAL_TIM_OC_ConfigChannel+0x1ac>)
 80035ee:	42bb      	cmp	r3, r7
 80035f0:	d00d      	beq.n	800360e <HAL_TIM_OC_ConfigChannel+0x14e>
 80035f2:	6849      	ldr	r1, [r1, #4]
 80035f4:	605d      	str	r5, [r3, #4]
 80035f6:	61dc      	str	r4, [r3, #28]
 80035f8:	63d9      	str	r1, [r3, #60]	; 0x3c
 80035fa:	621a      	str	r2, [r3, #32]
 80035fc:	e798      	b.n	8003530 <HAL_TIM_OC_ConfigChannel+0x70>
 80035fe:	2002      	movs	r0, #2
 8003600:	4770      	bx	lr
 8003602:	694e      	ldr	r6, [r1, #20]
 8003604:	f425 4580 	bic.w	r5, r5, #16384	; 0x4000
 8003608:	ea45 1586 	orr.w	r5, r5, r6, lsl #6
 800360c:	e7b3      	b.n	8003576 <HAL_TIM_OC_ConfigChannel+0xb6>
 800360e:	68ce      	ldr	r6, [r1, #12]
 8003610:	f422 6200 	bic.w	r2, r2, #2048	; 0x800
 8003614:	ea42 2206 	orr.w	r2, r2, r6, lsl #8
 8003618:	e9d1 6705 	ldrd	r6, r7, [r1, #20]
 800361c:	f425 5c40 	bic.w	ip, r5, #12288	; 0x3000
 8003620:	ea46 0507 	orr.w	r5, r6, r7
 8003624:	f422 6280 	bic.w	r2, r2, #1024	; 0x400
 8003628:	ea4c 1505 	orr.w	r5, ip, r5, lsl #4
 800362c:	e7e1      	b.n	80035f2 <HAL_TIM_OC_ConfigChannel+0x132>
 800362e:	68ce      	ldr	r6, [r1, #12]
 8003630:	f022 0208 	bic.w	r2, r2, #8
 8003634:	4332      	orrs	r2, r6
 8003636:	e9d1 6705 	ldrd	r6, r7, [r1, #20]
 800363a:	f425 7540 	bic.w	r5, r5, #768	; 0x300
 800363e:	433e      	orrs	r6, r7
 8003640:	f022 0204 	bic.w	r2, r2, #4
 8003644:	4335      	orrs	r5, r6
 8003646:	e76e      	b.n	8003526 <HAL_TIM_OC_ConfigChannel+0x66>
 8003648:	68ce      	ldr	r6, [r1, #12]
 800364a:	f022 0280 	bic.w	r2, r2, #128	; 0x80
 800364e:	ea42 1206 	orr.w	r2, r2, r6, lsl #4
 8003652:	e9d1 6705 	ldrd	r6, r7, [r1, #20]
 8003656:	f425 6c40 	bic.w	ip, r5, #3072	; 0xc00
 800365a:	ea46 0507 	orr.w	r5, r6, r7
 800365e:	f022 0240 	bic.w	r2, r2, #64	; 0x40
 8003662:	ea4c 0585 	orr.w	r5, ip, r5, lsl #2
 8003666:	e7a5      	b.n	80035b4 <HAL_TIM_OC_ConfigChannel+0xf4>
 8003668:	40010000 	.word	0x40010000
 800366c:	40010400 	.word	0x40010400

08003670 <HAL_TIM_PWM_ConfigChannel>:
 8003670:	f890 303c 	ldrb.w	r3, [r0, #60]	; 0x3c
 8003674:	2b01      	cmp	r3, #1
 8003676:	f000 80cc 	beq.w	8003812 <HAL_TIM_PWM_ConfigChannel+0x1a2>
 800367a:	b4f0      	push	{r4, r5, r6, r7}
 800367c:	2302      	movs	r3, #2
 800367e:	2401      	movs	r4, #1
 8003680:	f880 403c 	strb.w	r4, [r0, #60]	; 0x3c
 8003684:	f880 303d 	strb.w	r3, [r0, #61]	; 0x3d
 8003688:	2a0c      	cmp	r2, #12
 800368a:	d835      	bhi.n	80036f8 <HAL_TIM_PWM_ConfigChannel+0x88>
 800368c:	e8df f002 	tbb	[pc, r2]
 8003690:	34343407 	.word	0x34343407
 8003694:	3434346a 	.word	0x3434346a
 8003698:	34343496 	.word	0x34343496
 800369c:	3d          	.byte	0x3d
 800369d:	00          	.byte	0x00
 800369e:	6803      	ldr	r3, [r0, #0]
 80036a0:	f8d1 c008 	ldr.w	ip, [r1, #8]
 80036a4:	6a1d      	ldr	r5, [r3, #32]
 80036a6:	680f      	ldr	r7, [r1, #0]
 80036a8:	4e74      	ldr	r6, [pc, #464]	; (800387c <HAL_TIM_PWM_ConfigChannel+0x20c>)
 80036aa:	f025 0501 	bic.w	r5, r5, #1
 80036ae:	621d      	str	r5, [r3, #32]
 80036b0:	6a1a      	ldr	r2, [r3, #32]
 80036b2:	685d      	ldr	r5, [r3, #4]
 80036b4:	699c      	ldr	r4, [r3, #24]
 80036b6:	f022 0202 	bic.w	r2, r2, #2
 80036ba:	f024 0473 	bic.w	r4, r4, #115	; 0x73
 80036be:	42b3      	cmp	r3, r6
 80036c0:	ea42 020c 	orr.w	r2, r2, ip
 80036c4:	ea44 0407 	orr.w	r4, r4, r7
 80036c8:	f000 80bb 	beq.w	8003842 <HAL_TIM_PWM_ConfigChannel+0x1d2>
 80036cc:	f506 6680 	add.w	r6, r6, #1024	; 0x400
 80036d0:	42b3      	cmp	r3, r6
 80036d2:	f000 80b6 	beq.w	8003842 <HAL_TIM_PWM_ConfigChannel+0x1d2>
 80036d6:	684e      	ldr	r6, [r1, #4]
 80036d8:	605d      	str	r5, [r3, #4]
 80036da:	619c      	str	r4, [r3, #24]
 80036dc:	635e      	str	r6, [r3, #52]	; 0x34
 80036de:	621a      	str	r2, [r3, #32]
 80036e0:	699c      	ldr	r4, [r3, #24]
 80036e2:	690d      	ldr	r5, [r1, #16]
 80036e4:	f044 0408 	orr.w	r4, r4, #8
 80036e8:	619c      	str	r4, [r3, #24]
 80036ea:	6999      	ldr	r1, [r3, #24]
 80036ec:	f021 0104 	bic.w	r1, r1, #4
 80036f0:	6199      	str	r1, [r3, #24]
 80036f2:	699a      	ldr	r2, [r3, #24]
 80036f4:	432a      	orrs	r2, r5
 80036f6:	619a      	str	r2, [r3, #24]
 80036f8:	2300      	movs	r3, #0
 80036fa:	2201      	movs	r2, #1
 80036fc:	f880 203d 	strb.w	r2, [r0, #61]	; 0x3d
 8003700:	f880 303c 	strb.w	r3, [r0, #60]	; 0x3c
 8003704:	bcf0      	pop	{r4, r5, r6, r7}
 8003706:	4618      	mov	r0, r3
 8003708:	4770      	bx	lr
 800370a:	6803      	ldr	r3, [r0, #0]
 800370c:	f8d1 c008 	ldr.w	ip, [r1, #8]
 8003710:	6a1d      	ldr	r5, [r3, #32]
 8003712:	680f      	ldr	r7, [r1, #0]
 8003714:	4e59      	ldr	r6, [pc, #356]	; (800387c <HAL_TIM_PWM_ConfigChannel+0x20c>)
 8003716:	f425 5580 	bic.w	r5, r5, #4096	; 0x1000
 800371a:	621d      	str	r5, [r3, #32]
 800371c:	6a1a      	ldr	r2, [r3, #32]
 800371e:	685d      	ldr	r5, [r3, #4]
 8003720:	69dc      	ldr	r4, [r3, #28]
 8003722:	f422 5200 	bic.w	r2, r2, #8192	; 0x2000
 8003726:	f424 44e6 	bic.w	r4, r4, #29440	; 0x7300
 800372a:	42b3      	cmp	r3, r6
 800372c:	ea42 320c 	orr.w	r2, r2, ip, lsl #12
 8003730:	ea44 2407 	orr.w	r4, r4, r7, lsl #8
 8003734:	d06f      	beq.n	8003816 <HAL_TIM_PWM_ConfigChannel+0x1a6>
 8003736:	f506 6680 	add.w	r6, r6, #1024	; 0x400
 800373a:	42b3      	cmp	r3, r6
 800373c:	d06b      	beq.n	8003816 <HAL_TIM_PWM_ConfigChannel+0x1a6>
 800373e:	684e      	ldr	r6, [r1, #4]
 8003740:	605d      	str	r5, [r3, #4]
 8003742:	61dc      	str	r4, [r3, #28]
 8003744:	641e      	str	r6, [r3, #64]	; 0x40
 8003746:	621a      	str	r2, [r3, #32]
 8003748:	69dc      	ldr	r4, [r3, #28]
 800374a:	690d      	ldr	r5, [r1, #16]
 800374c:	f444 6400 	orr.w	r4, r4, #2048	; 0x800
 8003750:	61dc      	str	r4, [r3, #28]
 8003752:	69d9      	ldr	r1, [r3, #28]
 8003754:	f421 6180 	bic.w	r1, r1, #1024	; 0x400
 8003758:	61d9      	str	r1, [r3, #28]
 800375a:	69da      	ldr	r2, [r3, #28]
 800375c:	ea42 2205 	orr.w	r2, r2, r5, lsl #8
 8003760:	61da      	str	r2, [r3, #28]
 8003762:	e7c9      	b.n	80036f8 <HAL_TIM_PWM_ConfigChannel+0x88>
 8003764:	6803      	ldr	r3, [r0, #0]
 8003766:	688f      	ldr	r7, [r1, #8]
 8003768:	6a1d      	ldr	r5, [r3, #32]
 800376a:	680e      	ldr	r6, [r1, #0]
 800376c:	f8df c10c 	ldr.w	ip, [pc, #268]	; 800387c <HAL_TIM_PWM_ConfigChannel+0x20c>
 8003770:	f025 0510 	bic.w	r5, r5, #16
 8003774:	621d      	str	r5, [r3, #32]
 8003776:	6a1a      	ldr	r2, [r3, #32]
 8003778:	685d      	ldr	r5, [r3, #4]
 800377a:	699c      	ldr	r4, [r3, #24]
 800377c:	f022 0220 	bic.w	r2, r2, #32
 8003780:	f424 44e6 	bic.w	r4, r4, #29440	; 0x7300
 8003784:	4563      	cmp	r3, ip
 8003786:	ea42 1207 	orr.w	r2, r2, r7, lsl #4
 800378a:	ea44 2406 	orr.w	r4, r4, r6, lsl #8
 800378e:	d065      	beq.n	800385c <HAL_TIM_PWM_ConfigChannel+0x1ec>
 8003790:	4f3b      	ldr	r7, [pc, #236]	; (8003880 <HAL_TIM_PWM_ConfigChannel+0x210>)
 8003792:	42bb      	cmp	r3, r7
 8003794:	d062      	beq.n	800385c <HAL_TIM_PWM_ConfigChannel+0x1ec>
 8003796:	684e      	ldr	r6, [r1, #4]
 8003798:	605d      	str	r5, [r3, #4]
 800379a:	619c      	str	r4, [r3, #24]
 800379c:	639e      	str	r6, [r3, #56]	; 0x38
 800379e:	621a      	str	r2, [r3, #32]
 80037a0:	699c      	ldr	r4, [r3, #24]
 80037a2:	690d      	ldr	r5, [r1, #16]
 80037a4:	f444 6400 	orr.w	r4, r4, #2048	; 0x800
 80037a8:	619c      	str	r4, [r3, #24]
 80037aa:	6999      	ldr	r1, [r3, #24]
 80037ac:	f421 6180 	bic.w	r1, r1, #1024	; 0x400
 80037b0:	6199      	str	r1, [r3, #24]
 80037b2:	699a      	ldr	r2, [r3, #24]
 80037b4:	ea42 2205 	orr.w	r2, r2, r5, lsl #8
 80037b8:	619a      	str	r2, [r3, #24]
 80037ba:	e79d      	b.n	80036f8 <HAL_TIM_PWM_ConfigChannel+0x88>
 80037bc:	6803      	ldr	r3, [r0, #0]
 80037be:	688f      	ldr	r7, [r1, #8]
 80037c0:	6a1d      	ldr	r5, [r3, #32]
 80037c2:	680e      	ldr	r6, [r1, #0]
 80037c4:	f8df c0b4 	ldr.w	ip, [pc, #180]	; 800387c <HAL_TIM_PWM_ConfigChannel+0x20c>
 80037c8:	f425 7580 	bic.w	r5, r5, #256	; 0x100
 80037cc:	621d      	str	r5, [r3, #32]
 80037ce:	6a1a      	ldr	r2, [r3, #32]
 80037d0:	685d      	ldr	r5, [r3, #4]
 80037d2:	69dc      	ldr	r4, [r3, #28]
 80037d4:	f422 7200 	bic.w	r2, r2, #512	; 0x200
 80037d8:	f024 0473 	bic.w	r4, r4, #115	; 0x73
 80037dc:	4563      	cmp	r3, ip
 80037de:	ea42 2207 	orr.w	r2, r2, r7, lsl #8
 80037e2:	ea44 0406 	orr.w	r4, r4, r6
 80037e6:	d01c      	beq.n	8003822 <HAL_TIM_PWM_ConfigChannel+0x1b2>
 80037e8:	4f25      	ldr	r7, [pc, #148]	; (8003880 <HAL_TIM_PWM_ConfigChannel+0x210>)
 80037ea:	42bb      	cmp	r3, r7
 80037ec:	d019      	beq.n	8003822 <HAL_TIM_PWM_ConfigChannel+0x1b2>
 80037ee:	684e      	ldr	r6, [r1, #4]
 80037f0:	605d      	str	r5, [r3, #4]
 80037f2:	61dc      	str	r4, [r3, #28]
 80037f4:	63de      	str	r6, [r3, #60]	; 0x3c
 80037f6:	621a      	str	r2, [r3, #32]
 80037f8:	69dc      	ldr	r4, [r3, #28]
 80037fa:	690d      	ldr	r5, [r1, #16]
 80037fc:	f044 0408 	orr.w	r4, r4, #8
 8003800:	61dc      	str	r4, [r3, #28]
 8003802:	69d9      	ldr	r1, [r3, #28]
 8003804:	f021 0104 	bic.w	r1, r1, #4
 8003808:	61d9      	str	r1, [r3, #28]
 800380a:	69da      	ldr	r2, [r3, #28]
 800380c:	432a      	orrs	r2, r5
 800380e:	61da      	str	r2, [r3, #28]
 8003810:	e772      	b.n	80036f8 <HAL_TIM_PWM_ConfigChannel+0x88>
 8003812:	2002      	movs	r0, #2
 8003814:	4770      	bx	lr
 8003816:	694e      	ldr	r6, [r1, #20]
 8003818:	f425 4580 	bic.w	r5, r5, #16384	; 0x4000
 800381c:	ea45 1586 	orr.w	r5, r5, r6, lsl #6
 8003820:	e78d      	b.n	800373e <HAL_TIM_PWM_ConfigChannel+0xce>
 8003822:	68ce      	ldr	r6, [r1, #12]
 8003824:	f422 6200 	bic.w	r2, r2, #2048	; 0x800
 8003828:	ea42 2206 	orr.w	r2, r2, r6, lsl #8
 800382c:	e9d1 6705 	ldrd	r6, r7, [r1, #20]
 8003830:	f425 5c40 	bic.w	ip, r5, #12288	; 0x3000
 8003834:	ea46 0507 	orr.w	r5, r6, r7
 8003838:	f422 6280 	bic.w	r2, r2, #1024	; 0x400
 800383c:	ea4c 1505 	orr.w	r5, ip, r5, lsl #4
 8003840:	e7d5      	b.n	80037ee <HAL_TIM_PWM_ConfigChannel+0x17e>
 8003842:	68ce      	ldr	r6, [r1, #12]
 8003844:	f022 0208 	bic.w	r2, r2, #8
 8003848:	4332      	orrs	r2, r6
 800384a:	e9d1 6705 	ldrd	r6, r7, [r1, #20]
 800384e:	f425 7540 	bic.w	r5, r5, #768	; 0x300
 8003852:	433e      	orrs	r6, r7
 8003854:	f022 0204 	bic.w	r2, r2, #4
 8003858:	4335      	orrs	r5, r6
 800385a:	e73c      	b.n	80036d6 <HAL_TIM_PWM_ConfigChannel+0x66>
 800385c:	68ce      	ldr	r6, [r1, #12]
 800385e:	f022 0280 	bic.w	r2, r2, #128	; 0x80
 8003862:	ea42 1206 	orr.w	r2, r2, r6, lsl #4
 8003866:	e9d1 6705 	ldrd	r6, r7, [r1, #20]
 800386a:	f425 6c40 	bic.w	ip, r5, #3072	; 0xc00
 800386e:	ea46 0507 	orr.w	r5, r6, r7
 8003872:	f022 0240 	bic.w	r2, r2, #64	; 0x40
 8003876:	ea4c 0585 	orr.w	r5, ip, r5, lsl #2
 800387a:	e78c      	b.n	8003796 <HAL_TIM_PWM_ConfigChannel+0x126>
 800387c:	40010000 	.word	0x40010000
 8003880:	40010400 	.word	0x40010400

08003884 <HAL_TIM_ConfigClockSource>:
 8003884:	f890 303c 	ldrb.w	r3, [r0, #60]	; 0x3c
 8003888:	2b01      	cmp	r3, #1
 800388a:	d05a      	beq.n	8003942 <HAL_TIM_ConfigClockSource+0xbe>
 800388c:	2202      	movs	r2, #2
 800388e:	6803      	ldr	r3, [r0, #0]
 8003890:	b4f0      	push	{r4, r5, r6, r7}
 8003892:	f880 203d 	strb.w	r2, [r0, #61]	; 0x3d
 8003896:	689a      	ldr	r2, [r3, #8]
 8003898:	680c      	ldr	r4, [r1, #0]
 800389a:	f422 427f 	bic.w	r2, r2, #65280	; 0xff00
 800389e:	f022 0277 	bic.w	r2, r2, #119	; 0x77
 80038a2:	2501      	movs	r5, #1
 80038a4:	2c40      	cmp	r4, #64	; 0x40
 80038a6:	f880 503c 	strb.w	r5, [r0, #60]	; 0x3c
 80038aa:	609a      	str	r2, [r3, #8]
 80038ac:	d074      	beq.n	8003998 <HAL_TIM_ConfigClockSource+0x114>
 80038ae:	d94a      	bls.n	8003946 <HAL_TIM_ConfigClockSource+0xc2>
 80038b0:	2c60      	cmp	r4, #96	; 0x60
 80038b2:	d02d      	beq.n	8003910 <HAL_TIM_ConfigClockSource+0x8c>
 80038b4:	d956      	bls.n	8003964 <HAL_TIM_ConfigClockSource+0xe0>
 80038b6:	2c70      	cmp	r4, #112	; 0x70
 80038b8:	d01a      	beq.n	80038f0 <HAL_TIM_ConfigClockSource+0x6c>
 80038ba:	f5b4 5f00 	cmp.w	r4, #8192	; 0x2000
 80038be:	d10e      	bne.n	80038de <HAL_TIM_ConfigClockSource+0x5a>
 80038c0:	e9d1 5201 	ldrd	r5, r2, [r1, #4]
 80038c4:	68cc      	ldr	r4, [r1, #12]
 80038c6:	6899      	ldr	r1, [r3, #8]
 80038c8:	432a      	orrs	r2, r5
 80038ca:	ea42 2204 	orr.w	r2, r2, r4, lsl #8
 80038ce:	f421 417f 	bic.w	r1, r1, #65280	; 0xff00
 80038d2:	430a      	orrs	r2, r1
 80038d4:	609a      	str	r2, [r3, #8]
 80038d6:	689a      	ldr	r2, [r3, #8]
 80038d8:	f442 4280 	orr.w	r2, r2, #16384	; 0x4000
 80038dc:	609a      	str	r2, [r3, #8]
 80038de:	2300      	movs	r3, #0
 80038e0:	2201      	movs	r2, #1
 80038e2:	f880 203d 	strb.w	r2, [r0, #61]	; 0x3d
 80038e6:	f880 303c 	strb.w	r3, [r0, #60]	; 0x3c
 80038ea:	bcf0      	pop	{r4, r5, r6, r7}
 80038ec:	4618      	mov	r0, r3
 80038ee:	4770      	bx	lr
 80038f0:	e9d1 5201 	ldrd	r5, r2, [r1, #4]
 80038f4:	68cc      	ldr	r4, [r1, #12]
 80038f6:	6899      	ldr	r1, [r3, #8]
 80038f8:	432a      	orrs	r2, r5
 80038fa:	ea42 2204 	orr.w	r2, r2, r4, lsl #8
 80038fe:	f421 417f 	bic.w	r1, r1, #65280	; 0xff00
 8003902:	430a      	orrs	r2, r1
 8003904:	609a      	str	r2, [r3, #8]
 8003906:	689a      	ldr	r2, [r3, #8]
 8003908:	f042 0277 	orr.w	r2, r2, #119	; 0x77
 800390c:	609a      	str	r2, [r3, #8]
 800390e:	e7e6      	b.n	80038de <HAL_TIM_ConfigClockSource+0x5a>
 8003910:	6a1c      	ldr	r4, [r3, #32]
 8003912:	684d      	ldr	r5, [r1, #4]
 8003914:	68ce      	ldr	r6, [r1, #12]
 8003916:	f024 0410 	bic.w	r4, r4, #16
 800391a:	621c      	str	r4, [r3, #32]
 800391c:	6999      	ldr	r1, [r3, #24]
 800391e:	6a1a      	ldr	r2, [r3, #32]
 8003920:	f421 4170 	bic.w	r1, r1, #61440	; 0xf000
 8003924:	f022 02a0 	bic.w	r2, r2, #160	; 0xa0
 8003928:	ea42 1205 	orr.w	r2, r2, r5, lsl #4
 800392c:	ea41 3106 	orr.w	r1, r1, r6, lsl #12
 8003930:	6199      	str	r1, [r3, #24]
 8003932:	621a      	str	r2, [r3, #32]
 8003934:	689a      	ldr	r2, [r3, #8]
 8003936:	f022 0270 	bic.w	r2, r2, #112	; 0x70
 800393a:	f042 0267 	orr.w	r2, r2, #103	; 0x67
 800393e:	609a      	str	r2, [r3, #8]
 8003940:	e7cd      	b.n	80038de <HAL_TIM_ConfigClockSource+0x5a>
 8003942:	2002      	movs	r0, #2
 8003944:	4770      	bx	lr
 8003946:	2c10      	cmp	r4, #16
 8003948:	d004      	beq.n	8003954 <HAL_TIM_ConfigClockSource+0xd0>
 800394a:	d93d      	bls.n	80039c8 <HAL_TIM_ConfigClockSource+0x144>
 800394c:	2c20      	cmp	r4, #32
 800394e:	d001      	beq.n	8003954 <HAL_TIM_ConfigClockSource+0xd0>
 8003950:	2c30      	cmp	r4, #48	; 0x30
 8003952:	d1c4      	bne.n	80038de <HAL_TIM_ConfigClockSource+0x5a>
 8003954:	689a      	ldr	r2, [r3, #8]
 8003956:	f044 0407 	orr.w	r4, r4, #7
 800395a:	f022 0270 	bic.w	r2, r2, #112	; 0x70
 800395e:	4314      	orrs	r4, r2
 8003960:	609c      	str	r4, [r3, #8]
 8003962:	e7bc      	b.n	80038de <HAL_TIM_ConfigClockSource+0x5a>
 8003964:	2c50      	cmp	r4, #80	; 0x50
 8003966:	d1ba      	bne.n	80038de <HAL_TIM_ConfigClockSource+0x5a>
 8003968:	6a1d      	ldr	r5, [r3, #32]
 800396a:	6a1e      	ldr	r6, [r3, #32]
 800396c:	684c      	ldr	r4, [r1, #4]
 800396e:	68cf      	ldr	r7, [r1, #12]
 8003970:	f026 0601 	bic.w	r6, r6, #1
 8003974:	621e      	str	r6, [r3, #32]
 8003976:	699a      	ldr	r2, [r3, #24]
 8003978:	f025 010a 	bic.w	r1, r5, #10
 800397c:	f022 02f0 	bic.w	r2, r2, #240	; 0xf0
 8003980:	ea42 1207 	orr.w	r2, r2, r7, lsl #4
 8003984:	4321      	orrs	r1, r4
 8003986:	619a      	str	r2, [r3, #24]
 8003988:	6219      	str	r1, [r3, #32]
 800398a:	689a      	ldr	r2, [r3, #8]
 800398c:	f022 0270 	bic.w	r2, r2, #112	; 0x70
 8003990:	f042 0257 	orr.w	r2, r2, #87	; 0x57
 8003994:	609a      	str	r2, [r3, #8]
 8003996:	e7a2      	b.n	80038de <HAL_TIM_ConfigClockSource+0x5a>
 8003998:	6a1d      	ldr	r5, [r3, #32]
 800399a:	6a1e      	ldr	r6, [r3, #32]
 800399c:	684c      	ldr	r4, [r1, #4]
 800399e:	68cf      	ldr	r7, [r1, #12]
 80039a0:	f026 0601 	bic.w	r6, r6, #1
 80039a4:	621e      	str	r6, [r3, #32]
 80039a6:	699a      	ldr	r2, [r3, #24]
 80039a8:	f025 010a 	bic.w	r1, r5, #10
 80039ac:	f022 02f0 	bic.w	r2, r2, #240	; 0xf0
 80039b0:	ea42 1207 	orr.w	r2, r2, r7, lsl #4
 80039b4:	4321      	orrs	r1, r4
 80039b6:	619a      	str	r2, [r3, #24]
 80039b8:	6219      	str	r1, [r3, #32]
 80039ba:	689a      	ldr	r2, [r3, #8]
 80039bc:	f022 0270 	bic.w	r2, r2, #112	; 0x70
 80039c0:	f042 0247 	orr.w	r2, r2, #71	; 0x47
 80039c4:	609a      	str	r2, [r3, #8]
 80039c6:	e78a      	b.n	80038de <HAL_TIM_ConfigClockSource+0x5a>
 80039c8:	2c00      	cmp	r4, #0
 80039ca:	d0c3      	beq.n	8003954 <HAL_TIM_ConfigClockSource+0xd0>
 80039cc:	e787      	b.n	80038de <HAL_TIM_ConfigClockSource+0x5a>
 80039ce:	bf00      	nop

080039d0 <HAL_TIM_PeriodElapsedCallback>:
 80039d0:	4770      	bx	lr
 80039d2:	bf00      	nop

080039d4 <HAL_TIM_OC_DelayElapsedCallback>:
 80039d4:	4770      	bx	lr
 80039d6:	bf00      	nop

080039d8 <HAL_TIM_IC_CaptureCallback>:
 80039d8:	4770      	bx	lr
 80039da:	bf00      	nop

080039dc <HAL_TIM_PWM_PulseFinishedCallback>:
 80039dc:	4770      	bx	lr
 80039de:	bf00      	nop

080039e0 <HAL_TIM_TriggerCallback>:
 80039e0:	4770      	bx	lr
 80039e2:	bf00      	nop

080039e4 <HAL_TIM_IRQHandler>:
 80039e4:	6803      	ldr	r3, [r0, #0]
 80039e6:	691a      	ldr	r2, [r3, #16]
 80039e8:	0791      	lsls	r1, r2, #30
 80039ea:	b510      	push	{r4, lr}
 80039ec:	4604      	mov	r4, r0
 80039ee:	d502      	bpl.n	80039f6 <HAL_TIM_IRQHandler+0x12>
 80039f0:	68da      	ldr	r2, [r3, #12]
 80039f2:	0792      	lsls	r2, r2, #30
 80039f4:	d45f      	bmi.n	8003ab6 <HAL_TIM_IRQHandler+0xd2>
 80039f6:	691a      	ldr	r2, [r3, #16]
 80039f8:	0750      	lsls	r0, r2, #29
 80039fa:	d502      	bpl.n	8003a02 <HAL_TIM_IRQHandler+0x1e>
 80039fc:	68da      	ldr	r2, [r3, #12]
 80039fe:	0751      	lsls	r1, r2, #29
 8003a00:	d446      	bmi.n	8003a90 <HAL_TIM_IRQHandler+0xac>
 8003a02:	691a      	ldr	r2, [r3, #16]
 8003a04:	0712      	lsls	r2, r2, #28
 8003a06:	d502      	bpl.n	8003a0e <HAL_TIM_IRQHandler+0x2a>
 8003a08:	68da      	ldr	r2, [r3, #12]
 8003a0a:	0710      	lsls	r0, r2, #28
 8003a0c:	d42e      	bmi.n	8003a6c <HAL_TIM_IRQHandler+0x88>
 8003a0e:	691a      	ldr	r2, [r3, #16]
 8003a10:	06d2      	lsls	r2, r2, #27
 8003a12:	d502      	bpl.n	8003a1a <HAL_TIM_IRQHandler+0x36>
 8003a14:	68da      	ldr	r2, [r3, #12]
 8003a16:	06d0      	lsls	r0, r2, #27
 8003a18:	d418      	bmi.n	8003a4c <HAL_TIM_IRQHandler+0x68>
 8003a1a:	691a      	ldr	r2, [r3, #16]
 8003a1c:	07d1      	lsls	r1, r2, #31
 8003a1e:	d502      	bpl.n	8003a26 <HAL_TIM_IRQHandler+0x42>
 8003a20:	68da      	ldr	r2, [r3, #12]
 8003a22:	07d2      	lsls	r2, r2, #31
 8003a24:	d45d      	bmi.n	8003ae2 <HAL_TIM_IRQHandler+0xfe>
 8003a26:	691a      	ldr	r2, [r3, #16]
 8003a28:	0610      	lsls	r0, r2, #24
 8003a2a:	d502      	bpl.n	8003a32 <HAL_TIM_IRQHandler+0x4e>
 8003a2c:	68da      	ldr	r2, [r3, #12]
 8003a2e:	0611      	lsls	r1, r2, #24
 8003a30:	d45f      	bmi.n	8003af2 <HAL_TIM_IRQHandler+0x10e>
 8003a32:	691a      	ldr	r2, [r3, #16]
 8003a34:	0652      	lsls	r2, r2, #25
 8003a36:	d502      	bpl.n	8003a3e <HAL_TIM_IRQHandler+0x5a>
 8003a38:	68da      	ldr	r2, [r3, #12]
 8003a3a:	0650      	lsls	r0, r2, #25
 8003a3c:	d461      	bmi.n	8003b02 <HAL_TIM_IRQHandler+0x11e>
 8003a3e:	691a      	ldr	r2, [r3, #16]
 8003a40:	0691      	lsls	r1, r2, #26
 8003a42:	d502      	bpl.n	8003a4a <HAL_TIM_IRQHandler+0x66>
 8003a44:	68da      	ldr	r2, [r3, #12]
 8003a46:	0692      	lsls	r2, r2, #26
 8003a48:	d443      	bmi.n	8003ad2 <HAL_TIM_IRQHandler+0xee>
 8003a4a:	bd10      	pop	{r4, pc}
 8003a4c:	f06f 0210 	mvn.w	r2, #16
 8003a50:	611a      	str	r2, [r3, #16]
 8003a52:	69db      	ldr	r3, [r3, #28]
 8003a54:	2208      	movs	r2, #8
 8003a56:	f413 7f40 	tst.w	r3, #768	; 0x300
 8003a5a:	7722      	strb	r2, [r4, #28]
 8003a5c:	4620      	mov	r0, r4
 8003a5e:	d064      	beq.n	8003b2a <HAL_TIM_IRQHandler+0x146>
 8003a60:	f7ff ffba 	bl	80039d8 <HAL_TIM_IC_CaptureCallback>
 8003a64:	2200      	movs	r2, #0
 8003a66:	6823      	ldr	r3, [r4, #0]
 8003a68:	7722      	strb	r2, [r4, #28]
 8003a6a:	e7d6      	b.n	8003a1a <HAL_TIM_IRQHandler+0x36>
 8003a6c:	f06f 0208 	mvn.w	r2, #8
 8003a70:	611a      	str	r2, [r3, #16]
 8003a72:	69db      	ldr	r3, [r3, #28]
 8003a74:	2204      	movs	r2, #4
 8003a76:	0799      	lsls	r1, r3, #30
 8003a78:	7722      	strb	r2, [r4, #28]
 8003a7a:	4620      	mov	r0, r4
 8003a7c:	d152      	bne.n	8003b24 <HAL_TIM_IRQHandler+0x140>
 8003a7e:	f7ff ffa9 	bl	80039d4 <HAL_TIM_OC_DelayElapsedCallback>
 8003a82:	4620      	mov	r0, r4
 8003a84:	f7ff ffaa 	bl	80039dc <HAL_TIM_PWM_PulseFinishedCallback>
 8003a88:	2200      	movs	r2, #0
 8003a8a:	6823      	ldr	r3, [r4, #0]
 8003a8c:	7722      	strb	r2, [r4, #28]
 8003a8e:	e7be      	b.n	8003a0e <HAL_TIM_IRQHandler+0x2a>
 8003a90:	f06f 0204 	mvn.w	r2, #4
 8003a94:	611a      	str	r2, [r3, #16]
 8003a96:	699b      	ldr	r3, [r3, #24]
 8003a98:	2202      	movs	r2, #2
 8003a9a:	f413 7f40 	tst.w	r3, #768	; 0x300
 8003a9e:	7722      	strb	r2, [r4, #28]
 8003aa0:	4620      	mov	r0, r4
 8003aa2:	d13c      	bne.n	8003b1e <HAL_TIM_IRQHandler+0x13a>
 8003aa4:	f7ff ff96 	bl	80039d4 <HAL_TIM_OC_DelayElapsedCallback>
 8003aa8:	4620      	mov	r0, r4
 8003aaa:	f7ff ff97 	bl	80039dc <HAL_TIM_PWM_PulseFinishedCallback>
 8003aae:	2200      	movs	r2, #0
 8003ab0:	6823      	ldr	r3, [r4, #0]
 8003ab2:	7722      	strb	r2, [r4, #28]
 8003ab4:	e7a5      	b.n	8003a02 <HAL_TIM_IRQHandler+0x1e>
 8003ab6:	f06f 0202 	mvn.w	r2, #2
 8003aba:	611a      	str	r2, [r3, #16]
 8003abc:	699b      	ldr	r3, [r3, #24]
 8003abe:	2201      	movs	r2, #1
 8003ac0:	079b      	lsls	r3, r3, #30
 8003ac2:	7702      	strb	r2, [r0, #28]
 8003ac4:	d025      	beq.n	8003b12 <HAL_TIM_IRQHandler+0x12e>
 8003ac6:	f7ff ff87 	bl	80039d8 <HAL_TIM_IC_CaptureCallback>
 8003aca:	2200      	movs	r2, #0
 8003acc:	6823      	ldr	r3, [r4, #0]
 8003ace:	7722      	strb	r2, [r4, #28]
 8003ad0:	e791      	b.n	80039f6 <HAL_TIM_IRQHandler+0x12>
 8003ad2:	f06f 0220 	mvn.w	r2, #32
 8003ad6:	4620      	mov	r0, r4
 8003ad8:	611a      	str	r2, [r3, #16]
 8003ada:	e8bd 4010 	ldmia.w	sp!, {r4, lr}
 8003ade:	f000 b871 	b.w	8003bc4 <HAL_TIMEx_CommutCallback>
 8003ae2:	f06f 0201 	mvn.w	r2, #1
 8003ae6:	611a      	str	r2, [r3, #16]
 8003ae8:	4620      	mov	r0, r4
 8003aea:	f7ff ff71 	bl	80039d0 <HAL_TIM_PeriodElapsedCallback>
 8003aee:	6823      	ldr	r3, [r4, #0]
 8003af0:	e799      	b.n	8003a26 <HAL_TIM_IRQHandler+0x42>
 8003af2:	f06f 0280 	mvn.w	r2, #128	; 0x80
 8003af6:	611a      	str	r2, [r3, #16]
 8003af8:	4620      	mov	r0, r4
 8003afa:	f000 f865 	bl	8003bc8 <HAL_TIMEx_BreakCallback>
 8003afe:	6823      	ldr	r3, [r4, #0]
 8003b00:	e797      	b.n	8003a32 <HAL_TIM_IRQHandler+0x4e>
 8003b02:	f06f 0240 	mvn.w	r2, #64	; 0x40
 8003b06:	611a      	str	r2, [r3, #16]
 8003b08:	4620      	mov	r0, r4
 8003b0a:	f7ff ff69 	bl	80039e0 <HAL_TIM_TriggerCallback>
 8003b0e:	6823      	ldr	r3, [r4, #0]
 8003b10:	e795      	b.n	8003a3e <HAL_TIM_IRQHandler+0x5a>
 8003b12:	f7ff ff5f 	bl	80039d4 <HAL_TIM_OC_DelayElapsedCallback>
 8003b16:	4620      	mov	r0, r4
 8003b18:	f7ff ff60 	bl	80039dc <HAL_TIM_PWM_PulseFinishedCallback>
 8003b1c:	e7d5      	b.n	8003aca <HAL_TIM_IRQHandler+0xe6>
 8003b1e:	f7ff ff5b 	bl	80039d8 <HAL_TIM_IC_CaptureCallback>
 8003b22:	e7c4      	b.n	8003aae <HAL_TIM_IRQHandler+0xca>
 8003b24:	f7ff ff58 	bl	80039d8 <HAL_TIM_IC_CaptureCallback>
 8003b28:	e7ae      	b.n	8003a88 <HAL_TIM_IRQHandler+0xa4>
 8003b2a:	f7ff ff53 	bl	80039d4 <HAL_TIM_OC_DelayElapsedCallback>
 8003b2e:	4620      	mov	r0, r4
 8003b30:	f7ff ff54 	bl	80039dc <HAL_TIM_PWM_PulseFinishedCallback>
 8003b34:	e796      	b.n	8003a64 <HAL_TIM_IRQHandler+0x80>
 8003b36:	bf00      	nop

08003b38 <HAL_TIMEx_MasterConfigSynchronization>:
 8003b38:	f890 303c 	ldrb.w	r3, [r0, #60]	; 0x3c
 8003b3c:	2b01      	cmp	r3, #1
 8003b3e:	d03a      	beq.n	8003bb6 <HAL_TIMEx_MasterConfigSynchronization+0x7e>
 8003b40:	6803      	ldr	r3, [r0, #0]
 8003b42:	2202      	movs	r2, #2
 8003b44:	b470      	push	{r4, r5, r6}
 8003b46:	f880 203d 	strb.w	r2, [r0, #61]	; 0x3d
 8003b4a:	685a      	ldr	r2, [r3, #4]
 8003b4c:	680e      	ldr	r6, [r1, #0]
 8003b4e:	4d1b      	ldr	r5, [pc, #108]	; (8003bbc <HAL_TIMEx_MasterConfigSynchronization+0x84>)
 8003b50:	689c      	ldr	r4, [r3, #8]
 8003b52:	f022 0270 	bic.w	r2, r2, #112	; 0x70
 8003b56:	4332      	orrs	r2, r6
 8003b58:	42ab      	cmp	r3, r5
 8003b5a:	f04f 0601 	mov.w	r6, #1
 8003b5e:	f880 603c 	strb.w	r6, [r0, #60]	; 0x3c
 8003b62:	605a      	str	r2, [r3, #4]
 8003b64:	d019      	beq.n	8003b9a <HAL_TIMEx_MasterConfigSynchronization+0x62>
 8003b66:	f1b3 4f80 	cmp.w	r3, #1073741824	; 0x40000000
 8003b6a:	d016      	beq.n	8003b9a <HAL_TIMEx_MasterConfigSynchronization+0x62>
 8003b6c:	4a14      	ldr	r2, [pc, #80]	; (8003bc0 <HAL_TIMEx_MasterConfigSynchronization+0x88>)
 8003b6e:	4293      	cmp	r3, r2
 8003b70:	d013      	beq.n	8003b9a <HAL_TIMEx_MasterConfigSynchronization+0x62>
 8003b72:	f502 6280 	add.w	r2, r2, #1024	; 0x400
 8003b76:	4293      	cmp	r3, r2
 8003b78:	d00f      	beq.n	8003b9a <HAL_TIMEx_MasterConfigSynchronization+0x62>
 8003b7a:	f502 6280 	add.w	r2, r2, #1024	; 0x400
 8003b7e:	4293      	cmp	r3, r2
 8003b80:	d00b      	beq.n	8003b9a <HAL_TIMEx_MasterConfigSynchronization+0x62>
 8003b82:	f502 4278 	add.w	r2, r2, #63488	; 0xf800
 8003b86:	4293      	cmp	r3, r2
 8003b88:	d007      	beq.n	8003b9a <HAL_TIMEx_MasterConfigSynchronization+0x62>
 8003b8a:	f502 5270 	add.w	r2, r2, #15360	; 0x3c00
 8003b8e:	4293      	cmp	r3, r2
 8003b90:	d003      	beq.n	8003b9a <HAL_TIMEx_MasterConfigSynchronization+0x62>
 8003b92:	f5a2 3294 	sub.w	r2, r2, #75776	; 0x12800
 8003b96:	4293      	cmp	r3, r2
 8003b98:	d104      	bne.n	8003ba4 <HAL_TIMEx_MasterConfigSynchronization+0x6c>
 8003b9a:	684a      	ldr	r2, [r1, #4]
 8003b9c:	f024 0480 	bic.w	r4, r4, #128	; 0x80
 8003ba0:	4314      	orrs	r4, r2
 8003ba2:	609c      	str	r4, [r3, #8]
 8003ba4:	2300      	movs	r3, #0
 8003ba6:	2201      	movs	r2, #1
 8003ba8:	f880 203d 	strb.w	r2, [r0, #61]	; 0x3d
 8003bac:	f880 303c 	strb.w	r3, [r0, #60]	; 0x3c
 8003bb0:	bc70      	pop	{r4, r5, r6}
 8003bb2:	4618      	mov	r0, r3
 8003bb4:	4770      	bx	lr
 8003bb6:	2002      	movs	r0, #2
 8003bb8:	4770      	bx	lr
 8003bba:	bf00      	nop
 8003bbc:	40010000 	.word	0x40010000
 8003bc0:	40000400 	.word	0x40000400

08003bc4 <HAL_TIMEx_CommutCallback>:
 8003bc4:	4770      	bx	lr
 8003bc6:	bf00      	nop

08003bc8 <HAL_TIMEx_BreakCallback>:
 8003bc8:	4770      	bx	lr
 8003bca:	bf00      	nop

08003bcc <__errno>:
 8003bcc:	4b01      	ldr	r3, [pc, #4]	; (8003bd4 <__errno+0x8>)
 8003bce:	6818      	ldr	r0, [r3, #0]
 8003bd0:	4770      	bx	lr
 8003bd2:	bf00      	nop
 8003bd4:	20000010 	.word	0x20000010

08003bd8 <__libc_init_array>:
 8003bd8:	b570      	push	{r4, r5, r6, lr}
 8003bda:	4e0d      	ldr	r6, [pc, #52]	; (8003c10 <__libc_init_array+0x38>)
 8003bdc:	4c0d      	ldr	r4, [pc, #52]	; (8003c14 <__libc_init_array+0x3c>)
 8003bde:	1ba4      	subs	r4, r4, r6
 8003be0:	10a4      	asrs	r4, r4, #2
 8003be2:	2500      	movs	r5, #0
 8003be4:	42a5      	cmp	r5, r4
 8003be6:	d109      	bne.n	8003bfc <__libc_init_array+0x24>
 8003be8:	4e0b      	ldr	r6, [pc, #44]	; (8003c18 <__libc_init_array+0x40>)
 8003bea:	4c0c      	ldr	r4, [pc, #48]	; (8003c1c <__libc_init_array+0x44>)
 8003bec:	f001 fe2a 	bl	8005844 <_init>
 8003bf0:	1ba4      	subs	r4, r4, r6
 8003bf2:	10a4      	asrs	r4, r4, #2
 8003bf4:	2500      	movs	r5, #0
 8003bf6:	42a5      	cmp	r5, r4
 8003bf8:	d105      	bne.n	8003c06 <__libc_init_array+0x2e>
 8003bfa:	bd70      	pop	{r4, r5, r6, pc}
 8003bfc:	f856 3025 	ldr.w	r3, [r6, r5, lsl #2]
 8003c00:	4798      	blx	r3
 8003c02:	3501      	adds	r5, #1
 8003c04:	e7ee      	b.n	8003be4 <__libc_init_array+0xc>
 8003c06:	f856 3025 	ldr.w	r3, [r6, r5, lsl #2]
 8003c0a:	4798      	blx	r3
 8003c0c:	3501      	adds	r5, #1
 8003c0e:	e7f2      	b.n	8003bf6 <__libc_init_array+0x1e>
 8003c10:	08005ae8 	.word	0x08005ae8
 8003c14:	08005ae8 	.word	0x08005ae8
 8003c18:	08005ae8 	.word	0x08005ae8
 8003c1c:	08005aec 	.word	0x08005aec

08003c20 <memset>:
 8003c20:	4402      	add	r2, r0
 8003c22:	4603      	mov	r3, r0
 8003c24:	4293      	cmp	r3, r2
 8003c26:	d100      	bne.n	8003c2a <memset+0xa>
 8003c28:	4770      	bx	lr
 8003c2a:	f803 1b01 	strb.w	r1, [r3], #1
 8003c2e:	e7f9      	b.n	8003c24 <memset+0x4>

08003c30 <sulp>:
 8003c30:	b570      	push	{r4, r5, r6, lr}
 8003c32:	4604      	mov	r4, r0
 8003c34:	460d      	mov	r5, r1
 8003c36:	ec45 4b10 	vmov	d0, r4, r5
 8003c3a:	4616      	mov	r6, r2
 8003c3c:	f001 fc2c 	bl	8005498 <__ulp>
 8003c40:	ec51 0b10 	vmov	r0, r1, d0
 8003c44:	b17e      	cbz	r6, 8003c66 <sulp+0x36>
 8003c46:	f3c5 530a 	ubfx	r3, r5, #20, #11
 8003c4a:	f1c3 036b 	rsb	r3, r3, #107	; 0x6b
 8003c4e:	2b00      	cmp	r3, #0
 8003c50:	dd09      	ble.n	8003c66 <sulp+0x36>
 8003c52:	051b      	lsls	r3, r3, #20
 8003c54:	f103 557f 	add.w	r5, r3, #1069547520	; 0x3fc00000
 8003c58:	2400      	movs	r4, #0
 8003c5a:	f505 1540 	add.w	r5, r5, #3145728	; 0x300000
 8003c5e:	4622      	mov	r2, r4
 8003c60:	462b      	mov	r3, r5
 8003c62:	f7fc fc75 	bl	8000550 <__aeabi_dmul>
 8003c66:	bd70      	pop	{r4, r5, r6, pc}

08003c68 <_strtod_l>:
 8003c68:	e92d 4ff0 	stmdb	sp!, {r4, r5, r6, r7, r8, r9, sl, fp, lr}
 8003c6c:	461f      	mov	r7, r3
 8003c6e:	b0a1      	sub	sp, #132	; 0x84
 8003c70:	2300      	movs	r3, #0
 8003c72:	4681      	mov	r9, r0
 8003c74:	4638      	mov	r0, r7
 8003c76:	460e      	mov	r6, r1
 8003c78:	9217      	str	r2, [sp, #92]	; 0x5c
 8003c7a:	931c      	str	r3, [sp, #112]	; 0x70
 8003c7c:	f001 f922 	bl	8004ec4 <__localeconv_l>
 8003c80:	4680      	mov	r8, r0
 8003c82:	6800      	ldr	r0, [r0, #0]
 8003c84:	f7fc faa0 	bl	80001c8 <strlen>
 8003c88:	f04f 0a00 	mov.w	sl, #0
 8003c8c:	4604      	mov	r4, r0
 8003c8e:	f04f 0b00 	mov.w	fp, #0
 8003c92:	961b      	str	r6, [sp, #108]	; 0x6c
 8003c94:	9b1b      	ldr	r3, [sp, #108]	; 0x6c
 8003c96:	781a      	ldrb	r2, [r3, #0]
 8003c98:	2a0d      	cmp	r2, #13
 8003c9a:	d832      	bhi.n	8003d02 <_strtod_l+0x9a>
 8003c9c:	2a09      	cmp	r2, #9
 8003c9e:	d236      	bcs.n	8003d0e <_strtod_l+0xa6>
 8003ca0:	2a00      	cmp	r2, #0
 8003ca2:	d03e      	beq.n	8003d22 <_strtod_l+0xba>
 8003ca4:	2300      	movs	r3, #0
 8003ca6:	930d      	str	r3, [sp, #52]	; 0x34
 8003ca8:	9d1b      	ldr	r5, [sp, #108]	; 0x6c
 8003caa:	782b      	ldrb	r3, [r5, #0]
 8003cac:	2b30      	cmp	r3, #48	; 0x30
 8003cae:	f040 80ac 	bne.w	8003e0a <_strtod_l+0x1a2>
 8003cb2:	786b      	ldrb	r3, [r5, #1]
 8003cb4:	2b58      	cmp	r3, #88	; 0x58
 8003cb6:	d001      	beq.n	8003cbc <_strtod_l+0x54>
 8003cb8:	2b78      	cmp	r3, #120	; 0x78
 8003cba:	d167      	bne.n	8003d8c <_strtod_l+0x124>
 8003cbc:	9b0d      	ldr	r3, [sp, #52]	; 0x34
 8003cbe:	9301      	str	r3, [sp, #4]
 8003cc0:	ab1c      	add	r3, sp, #112	; 0x70
 8003cc2:	9300      	str	r3, [sp, #0]
 8003cc4:	9702      	str	r7, [sp, #8]
 8003cc6:	ab1d      	add	r3, sp, #116	; 0x74
 8003cc8:	4a88      	ldr	r2, [pc, #544]	; (8003eec <_strtod_l+0x284>)
 8003cca:	a91b      	add	r1, sp, #108	; 0x6c
 8003ccc:	4648      	mov	r0, r9
 8003cce:	f000 fe22 	bl	8004916 <__gethex>
 8003cd2:	f010 0407 	ands.w	r4, r0, #7
 8003cd6:	4606      	mov	r6, r0
 8003cd8:	d005      	beq.n	8003ce6 <_strtod_l+0x7e>
 8003cda:	2c06      	cmp	r4, #6
 8003cdc:	d12b      	bne.n	8003d36 <_strtod_l+0xce>
 8003cde:	3501      	adds	r5, #1
 8003ce0:	2300      	movs	r3, #0
 8003ce2:	951b      	str	r5, [sp, #108]	; 0x6c
 8003ce4:	930d      	str	r3, [sp, #52]	; 0x34
 8003ce6:	9b17      	ldr	r3, [sp, #92]	; 0x5c
 8003ce8:	2b00      	cmp	r3, #0
 8003cea:	f040 859a 	bne.w	8004822 <_strtod_l+0xbba>
 8003cee:	9b0d      	ldr	r3, [sp, #52]	; 0x34
 8003cf0:	b1e3      	cbz	r3, 8003d2c <_strtod_l+0xc4>
 8003cf2:	4652      	mov	r2, sl
 8003cf4:	f10b 4300 	add.w	r3, fp, #2147483648	; 0x80000000
 8003cf8:	ec43 2b10 	vmov	d0, r2, r3
 8003cfc:	b021      	add	sp, #132	; 0x84
 8003cfe:	e8bd 8ff0 	ldmia.w	sp!, {r4, r5, r6, r7, r8, r9, sl, fp, pc}
 8003d02:	2a2b      	cmp	r2, #43	; 0x2b
 8003d04:	d015      	beq.n	8003d32 <_strtod_l+0xca>
 8003d06:	2a2d      	cmp	r2, #45	; 0x2d
 8003d08:	d004      	beq.n	8003d14 <_strtod_l+0xac>
 8003d0a:	2a20      	cmp	r2, #32
 8003d0c:	d1ca      	bne.n	8003ca4 <_strtod_l+0x3c>
 8003d0e:	3301      	adds	r3, #1
 8003d10:	931b      	str	r3, [sp, #108]	; 0x6c
 8003d12:	e7bf      	b.n	8003c94 <_strtod_l+0x2c>
 8003d14:	2201      	movs	r2, #1
 8003d16:	920d      	str	r2, [sp, #52]	; 0x34
 8003d18:	1c5a      	adds	r2, r3, #1
 8003d1a:	921b      	str	r2, [sp, #108]	; 0x6c
 8003d1c:	785b      	ldrb	r3, [r3, #1]
 8003d1e:	2b00      	cmp	r3, #0
 8003d20:	d1c2      	bne.n	8003ca8 <_strtod_l+0x40>
 8003d22:	9b17      	ldr	r3, [sp, #92]	; 0x5c
 8003d24:	961b      	str	r6, [sp, #108]	; 0x6c
 8003d26:	2b00      	cmp	r3, #0
 8003d28:	f040 8579 	bne.w	800481e <_strtod_l+0xbb6>
 8003d2c:	4652      	mov	r2, sl
 8003d2e:	465b      	mov	r3, fp
 8003d30:	e7e2      	b.n	8003cf8 <_strtod_l+0x90>
 8003d32:	2200      	movs	r2, #0
 8003d34:	e7ef      	b.n	8003d16 <_strtod_l+0xae>
 8003d36:	9a1c      	ldr	r2, [sp, #112]	; 0x70
 8003d38:	b13a      	cbz	r2, 8003d4a <_strtod_l+0xe2>
 8003d3a:	2135      	movs	r1, #53	; 0x35
 8003d3c:	a81e      	add	r0, sp, #120	; 0x78
 8003d3e:	f001 fca3 	bl	8005688 <__copybits>
 8003d42:	991c      	ldr	r1, [sp, #112]	; 0x70
 8003d44:	4648      	mov	r0, r9
 8003d46:	f001 f910 	bl	8004f6a <_Bfree>
 8003d4a:	3c01      	subs	r4, #1
 8003d4c:	2c04      	cmp	r4, #4
 8003d4e:	d806      	bhi.n	8003d5e <_strtod_l+0xf6>
 8003d50:	e8df f004 	tbb	[pc, r4]
 8003d54:	1714030a 	.word	0x1714030a
 8003d58:	0a          	.byte	0x0a
 8003d59:	00          	.byte	0x00
 8003d5a:	e9dd ab1e 	ldrd	sl, fp, [sp, #120]	; 0x78
 8003d5e:	0730      	lsls	r0, r6, #28
 8003d60:	d5c1      	bpl.n	8003ce6 <_strtod_l+0x7e>
 8003d62:	f04b 4b00 	orr.w	fp, fp, #2147483648	; 0x80000000
 8003d66:	e7be      	b.n	8003ce6 <_strtod_l+0x7e>
 8003d68:	e9dd a31e 	ldrd	sl, r3, [sp, #120]	; 0x78
 8003d6c:	9a1d      	ldr	r2, [sp, #116]	; 0x74
 8003d6e:	f423 1380 	bic.w	r3, r3, #1048576	; 0x100000
 8003d72:	f202 4233 	addw	r2, r2, #1075	; 0x433
 8003d76:	ea43 5b02 	orr.w	fp, r3, r2, lsl #20
 8003d7a:	e7f0      	b.n	8003d5e <_strtod_l+0xf6>
 8003d7c:	f8df b170 	ldr.w	fp, [pc, #368]	; 8003ef0 <_strtod_l+0x288>
 8003d80:	e7ed      	b.n	8003d5e <_strtod_l+0xf6>
 8003d82:	f06f 4b00 	mvn.w	fp, #2147483648	; 0x80000000
 8003d86:	f04f 3aff 	mov.w	sl, #4294967295
 8003d8a:	e7e8      	b.n	8003d5e <_strtod_l+0xf6>
 8003d8c:	9b1b      	ldr	r3, [sp, #108]	; 0x6c
 8003d8e:	1c5a      	adds	r2, r3, #1
 8003d90:	921b      	str	r2, [sp, #108]	; 0x6c
 8003d92:	785b      	ldrb	r3, [r3, #1]
 8003d94:	2b30      	cmp	r3, #48	; 0x30
 8003d96:	d0f9      	beq.n	8003d8c <_strtod_l+0x124>
 8003d98:	2b00      	cmp	r3, #0
 8003d9a:	d0a4      	beq.n	8003ce6 <_strtod_l+0x7e>
 8003d9c:	2301      	movs	r3, #1
 8003d9e:	2500      	movs	r5, #0
 8003da0:	9306      	str	r3, [sp, #24]
 8003da2:	9b1b      	ldr	r3, [sp, #108]	; 0x6c
 8003da4:	9308      	str	r3, [sp, #32]
 8003da6:	9507      	str	r5, [sp, #28]
 8003da8:	9505      	str	r5, [sp, #20]
 8003daa:	220a      	movs	r2, #10
 8003dac:	981b      	ldr	r0, [sp, #108]	; 0x6c
 8003dae:	7807      	ldrb	r7, [r0, #0]
 8003db0:	f1a7 0330 	sub.w	r3, r7, #48	; 0x30
 8003db4:	b2d9      	uxtb	r1, r3
 8003db6:	2909      	cmp	r1, #9
 8003db8:	d929      	bls.n	8003e0e <_strtod_l+0x1a6>
 8003dba:	4622      	mov	r2, r4
 8003dbc:	f8d8 1000 	ldr.w	r1, [r8]
 8003dc0:	f001 fd16 	bl	80057f0 <strncmp>
 8003dc4:	2800      	cmp	r0, #0
 8003dc6:	d031      	beq.n	8003e2c <_strtod_l+0x1c4>
 8003dc8:	2000      	movs	r0, #0
 8003dca:	9c05      	ldr	r4, [sp, #20]
 8003dcc:	9004      	str	r0, [sp, #16]
 8003dce:	463b      	mov	r3, r7
 8003dd0:	4602      	mov	r2, r0
 8003dd2:	2b65      	cmp	r3, #101	; 0x65
 8003dd4:	d001      	beq.n	8003dda <_strtod_l+0x172>
 8003dd6:	2b45      	cmp	r3, #69	; 0x45
 8003dd8:	d114      	bne.n	8003e04 <_strtod_l+0x19c>
 8003dda:	b924      	cbnz	r4, 8003de6 <_strtod_l+0x17e>
 8003ddc:	b910      	cbnz	r0, 8003de4 <_strtod_l+0x17c>
 8003dde:	9b06      	ldr	r3, [sp, #24]
 8003de0:	2b00      	cmp	r3, #0
 8003de2:	d09e      	beq.n	8003d22 <_strtod_l+0xba>
 8003de4:	2400      	movs	r4, #0
 8003de6:	9e1b      	ldr	r6, [sp, #108]	; 0x6c
 8003de8:	1c73      	adds	r3, r6, #1
 8003dea:	931b      	str	r3, [sp, #108]	; 0x6c
 8003dec:	7873      	ldrb	r3, [r6, #1]
 8003dee:	2b2b      	cmp	r3, #43	; 0x2b
 8003df0:	d078      	beq.n	8003ee4 <_strtod_l+0x27c>
 8003df2:	2b2d      	cmp	r3, #45	; 0x2d
 8003df4:	d070      	beq.n	8003ed8 <_strtod_l+0x270>
 8003df6:	f04f 0c00 	mov.w	ip, #0
 8003dfa:	f1a3 0730 	sub.w	r7, r3, #48	; 0x30
 8003dfe:	2f09      	cmp	r7, #9
 8003e00:	d97c      	bls.n	8003efc <_strtod_l+0x294>
 8003e02:	961b      	str	r6, [sp, #108]	; 0x6c
 8003e04:	f04f 0e00 	mov.w	lr, #0
 8003e08:	e09a      	b.n	8003f40 <_strtod_l+0x2d8>
 8003e0a:	2300      	movs	r3, #0
 8003e0c:	e7c7      	b.n	8003d9e <_strtod_l+0x136>
 8003e0e:	9905      	ldr	r1, [sp, #20]
 8003e10:	2908      	cmp	r1, #8
 8003e12:	bfdd      	ittte	le
 8003e14:	9907      	ldrle	r1, [sp, #28]
 8003e16:	fb02 3301 	mlale	r3, r2, r1, r3
 8003e1a:	9307      	strle	r3, [sp, #28]
 8003e1c:	fb02 3505 	mlagt	r5, r2, r5, r3
 8003e20:	9b05      	ldr	r3, [sp, #20]
 8003e22:	3001      	adds	r0, #1
 8003e24:	3301      	adds	r3, #1
 8003e26:	9305      	str	r3, [sp, #20]
 8003e28:	901b      	str	r0, [sp, #108]	; 0x6c
 8003e2a:	e7bf      	b.n	8003dac <_strtod_l+0x144>
 8003e2c:	9b1b      	ldr	r3, [sp, #108]	; 0x6c
 8003e2e:	191a      	adds	r2, r3, r4
 8003e30:	921b      	str	r2, [sp, #108]	; 0x6c
 8003e32:	9a05      	ldr	r2, [sp, #20]
 8003e34:	5d1b      	ldrb	r3, [r3, r4]
 8003e36:	2a00      	cmp	r2, #0
 8003e38:	d037      	beq.n	8003eaa <_strtod_l+0x242>
 8003e3a:	9c05      	ldr	r4, [sp, #20]
 8003e3c:	4602      	mov	r2, r0
 8003e3e:	f1a3 0130 	sub.w	r1, r3, #48	; 0x30
 8003e42:	2909      	cmp	r1, #9
 8003e44:	d913      	bls.n	8003e6e <_strtod_l+0x206>
 8003e46:	2101      	movs	r1, #1
 8003e48:	9104      	str	r1, [sp, #16]
 8003e4a:	e7c2      	b.n	8003dd2 <_strtod_l+0x16a>
 8003e4c:	9b1b      	ldr	r3, [sp, #108]	; 0x6c
 8003e4e:	1c5a      	adds	r2, r3, #1
 8003e50:	921b      	str	r2, [sp, #108]	; 0x6c
 8003e52:	785b      	ldrb	r3, [r3, #1]
 8003e54:	3001      	adds	r0, #1
 8003e56:	2b30      	cmp	r3, #48	; 0x30
 8003e58:	d0f8      	beq.n	8003e4c <_strtod_l+0x1e4>
 8003e5a:	f1a3 0231 	sub.w	r2, r3, #49	; 0x31
 8003e5e:	2a08      	cmp	r2, #8
 8003e60:	f200 84e4 	bhi.w	800482c <_strtod_l+0xbc4>
 8003e64:	9a1b      	ldr	r2, [sp, #108]	; 0x6c
 8003e66:	9208      	str	r2, [sp, #32]
 8003e68:	4602      	mov	r2, r0
 8003e6a:	2000      	movs	r0, #0
 8003e6c:	4604      	mov	r4, r0
 8003e6e:	f1b3 0e30 	subs.w	lr, r3, #48	; 0x30
 8003e72:	f100 0101 	add.w	r1, r0, #1
 8003e76:	d012      	beq.n	8003e9e <_strtod_l+0x236>
 8003e78:	440a      	add	r2, r1
 8003e7a:	eb00 0c04 	add.w	ip, r0, r4
 8003e7e:	4621      	mov	r1, r4
 8003e80:	270a      	movs	r7, #10
 8003e82:	458c      	cmp	ip, r1
 8003e84:	d113      	bne.n	8003eae <_strtod_l+0x246>
 8003e86:	1821      	adds	r1, r4, r0
 8003e88:	2908      	cmp	r1, #8
 8003e8a:	f104 0401 	add.w	r4, r4, #1
 8003e8e:	4404      	add	r4, r0
 8003e90:	dc19      	bgt.n	8003ec6 <_strtod_l+0x25e>
 8003e92:	9b07      	ldr	r3, [sp, #28]
 8003e94:	210a      	movs	r1, #10
 8003e96:	fb01 e303 	mla	r3, r1, r3, lr
 8003e9a:	9307      	str	r3, [sp, #28]
 8003e9c:	2100      	movs	r1, #0
 8003e9e:	9b1b      	ldr	r3, [sp, #108]	; 0x6c
 8003ea0:	1c58      	adds	r0, r3, #1
 8003ea2:	901b      	str	r0, [sp, #108]	; 0x6c
 8003ea4:	785b      	ldrb	r3, [r3, #1]
 8003ea6:	4608      	mov	r0, r1
 8003ea8:	e7c9      	b.n	8003e3e <_strtod_l+0x1d6>
 8003eaa:	9805      	ldr	r0, [sp, #20]
 8003eac:	e7d3      	b.n	8003e56 <_strtod_l+0x1ee>
 8003eae:	2908      	cmp	r1, #8
 8003eb0:	f101 0101 	add.w	r1, r1, #1
 8003eb4:	dc03      	bgt.n	8003ebe <_strtod_l+0x256>
 8003eb6:	9b07      	ldr	r3, [sp, #28]
 8003eb8:	437b      	muls	r3, r7
 8003eba:	9307      	str	r3, [sp, #28]
 8003ebc:	e7e1      	b.n	8003e82 <_strtod_l+0x21a>
 8003ebe:	2910      	cmp	r1, #16
 8003ec0:	bfd8      	it	le
 8003ec2:	437d      	mulle	r5, r7
 8003ec4:	e7dd      	b.n	8003e82 <_strtod_l+0x21a>
 8003ec6:	2c10      	cmp	r4, #16
 8003ec8:	bfdc      	itt	le
 8003eca:	210a      	movle	r1, #10
 8003ecc:	fb01 e505 	mlale	r5, r1, r5, lr
 8003ed0:	e7e4      	b.n	8003e9c <_strtod_l+0x234>
 8003ed2:	2301      	movs	r3, #1
 8003ed4:	9304      	str	r3, [sp, #16]
 8003ed6:	e781      	b.n	8003ddc <_strtod_l+0x174>
 8003ed8:	f04f 0c01 	mov.w	ip, #1
 8003edc:	1cb3      	adds	r3, r6, #2
 8003ede:	931b      	str	r3, [sp, #108]	; 0x6c
 8003ee0:	78b3      	ldrb	r3, [r6, #2]
 8003ee2:	e78a      	b.n	8003dfa <_strtod_l+0x192>
 8003ee4:	f04f 0c00 	mov.w	ip, #0
 8003ee8:	e7f8      	b.n	8003edc <_strtod_l+0x274>
 8003eea:	bf00      	nop
 8003eec:	0800587c 	.word	0x0800587c
 8003ef0:	7ff00000 	.word	0x7ff00000
 8003ef4:	9b1b      	ldr	r3, [sp, #108]	; 0x6c
 8003ef6:	1c5f      	adds	r7, r3, #1
 8003ef8:	971b      	str	r7, [sp, #108]	; 0x6c
 8003efa:	785b      	ldrb	r3, [r3, #1]
 8003efc:	2b30      	cmp	r3, #48	; 0x30
 8003efe:	d0f9      	beq.n	8003ef4 <_strtod_l+0x28c>
 8003f00:	f1a3 0731 	sub.w	r7, r3, #49	; 0x31
 8003f04:	2f08      	cmp	r7, #8
 8003f06:	f63f af7d 	bhi.w	8003e04 <_strtod_l+0x19c>
 8003f0a:	f1a3 0e30 	sub.w	lr, r3, #48	; 0x30
 8003f0e:	9b1b      	ldr	r3, [sp, #108]	; 0x6c
 8003f10:	930a      	str	r3, [sp, #40]	; 0x28
 8003f12:	9b1b      	ldr	r3, [sp, #108]	; 0x6c
 8003f14:	1c5f      	adds	r7, r3, #1
 8003f16:	971b      	str	r7, [sp, #108]	; 0x6c
 8003f18:	785b      	ldrb	r3, [r3, #1]
 8003f1a:	f1a3 0830 	sub.w	r8, r3, #48	; 0x30
 8003f1e:	f1b8 0f09 	cmp.w	r8, #9
 8003f22:	d937      	bls.n	8003f94 <_strtod_l+0x32c>
 8003f24:	990a      	ldr	r1, [sp, #40]	; 0x28
 8003f26:	1a7f      	subs	r7, r7, r1
 8003f28:	2f08      	cmp	r7, #8
 8003f2a:	f644 671f 	movw	r7, #19999	; 0x4e1f
 8003f2e:	dc37      	bgt.n	8003fa0 <_strtod_l+0x338>
 8003f30:	45be      	cmp	lr, r7
 8003f32:	bfa8      	it	ge
 8003f34:	46be      	movge	lr, r7
 8003f36:	f1bc 0f00 	cmp.w	ip, #0
 8003f3a:	d001      	beq.n	8003f40 <_strtod_l+0x2d8>
 8003f3c:	f1ce 0e00 	rsb	lr, lr, #0
 8003f40:	2c00      	cmp	r4, #0
 8003f42:	d151      	bne.n	8003fe8 <_strtod_l+0x380>
 8003f44:	2800      	cmp	r0, #0
 8003f46:	f47f aece 	bne.w	8003ce6 <_strtod_l+0x7e>
 8003f4a:	9a06      	ldr	r2, [sp, #24]
 8003f4c:	2a00      	cmp	r2, #0
 8003f4e:	f47f aeca 	bne.w	8003ce6 <_strtod_l+0x7e>
 8003f52:	9a04      	ldr	r2, [sp, #16]
 8003f54:	2a00      	cmp	r2, #0
 8003f56:	f47f aee4 	bne.w	8003d22 <_strtod_l+0xba>
 8003f5a:	2b4e      	cmp	r3, #78	; 0x4e
 8003f5c:	d027      	beq.n	8003fae <_strtod_l+0x346>
 8003f5e:	dc21      	bgt.n	8003fa4 <_strtod_l+0x33c>
 8003f60:	2b49      	cmp	r3, #73	; 0x49
 8003f62:	f47f aede 	bne.w	8003d22 <_strtod_l+0xba>
 8003f66:	49a0      	ldr	r1, [pc, #640]	; (80041e8 <_strtod_l+0x580>)
 8003f68:	a81b      	add	r0, sp, #108	; 0x6c
 8003f6a:	f000 ff07 	bl	8004d7c <__match>
 8003f6e:	2800      	cmp	r0, #0
 8003f70:	f43f aed7 	beq.w	8003d22 <_strtod_l+0xba>
 8003f74:	9b1b      	ldr	r3, [sp, #108]	; 0x6c
 8003f76:	499d      	ldr	r1, [pc, #628]	; (80041ec <_strtod_l+0x584>)
 8003f78:	3b01      	subs	r3, #1
 8003f7a:	a81b      	add	r0, sp, #108	; 0x6c
 8003f7c:	931b      	str	r3, [sp, #108]	; 0x6c
 8003f7e:	f000 fefd 	bl	8004d7c <__match>
 8003f82:	b910      	cbnz	r0, 8003f8a <_strtod_l+0x322>
 8003f84:	9b1b      	ldr	r3, [sp, #108]	; 0x6c
 8003f86:	3301      	adds	r3, #1
 8003f88:	931b      	str	r3, [sp, #108]	; 0x6c
 8003f8a:	f8df b274 	ldr.w	fp, [pc, #628]	; 8004200 <_strtod_l+0x598>
 8003f8e:	f04f 0a00 	mov.w	sl, #0
 8003f92:	e6a8      	b.n	8003ce6 <_strtod_l+0x7e>
 8003f94:	210a      	movs	r1, #10
 8003f96:	fb01 3e0e 	mla	lr, r1, lr, r3
 8003f9a:	f1ae 0e30 	sub.w	lr, lr, #48	; 0x30
 8003f9e:	e7b8      	b.n	8003f12 <_strtod_l+0x2aa>
 8003fa0:	46be      	mov	lr, r7
 8003fa2:	e7c8      	b.n	8003f36 <_strtod_l+0x2ce>
 8003fa4:	2b69      	cmp	r3, #105	; 0x69
 8003fa6:	d0de      	beq.n	8003f66 <_strtod_l+0x2fe>
 8003fa8:	2b6e      	cmp	r3, #110	; 0x6e
 8003faa:	f47f aeba 	bne.w	8003d22 <_strtod_l+0xba>
 8003fae:	4990      	ldr	r1, [pc, #576]	; (80041f0 <_strtod_l+0x588>)
 8003fb0:	a81b      	add	r0, sp, #108	; 0x6c
 8003fb2:	f000 fee3 	bl	8004d7c <__match>
 8003fb6:	2800      	cmp	r0, #0
 8003fb8:	f43f aeb3 	beq.w	8003d22 <_strtod_l+0xba>
 8003fbc:	9b1b      	ldr	r3, [sp, #108]	; 0x6c
 8003fbe:	781b      	ldrb	r3, [r3, #0]
 8003fc0:	2b28      	cmp	r3, #40	; 0x28
 8003fc2:	d10e      	bne.n	8003fe2 <_strtod_l+0x37a>
 8003fc4:	aa1e      	add	r2, sp, #120	; 0x78
 8003fc6:	498b      	ldr	r1, [pc, #556]	; (80041f4 <_strtod_l+0x58c>)
 8003fc8:	a81b      	add	r0, sp, #108	; 0x6c
 8003fca:	f000 feeb 	bl	8004da4 <__hexnan>
 8003fce:	2805      	cmp	r0, #5
 8003fd0:	d107      	bne.n	8003fe2 <_strtod_l+0x37a>
 8003fd2:	9b1f      	ldr	r3, [sp, #124]	; 0x7c
 8003fd4:	f8dd a078 	ldr.w	sl, [sp, #120]	; 0x78
 8003fd8:	f043 4bff 	orr.w	fp, r3, #2139095040	; 0x7f800000
 8003fdc:	f44b 0be0 	orr.w	fp, fp, #7340032	; 0x700000
 8003fe0:	e681      	b.n	8003ce6 <_strtod_l+0x7e>
 8003fe2:	f8df b224 	ldr.w	fp, [pc, #548]	; 8004208 <_strtod_l+0x5a0>
 8003fe6:	e7d2      	b.n	8003f8e <_strtod_l+0x326>
 8003fe8:	ebae 0302 	sub.w	r3, lr, r2
 8003fec:	9306      	str	r3, [sp, #24]
 8003fee:	9b05      	ldr	r3, [sp, #20]
 8003ff0:	9807      	ldr	r0, [sp, #28]
 8003ff2:	2b00      	cmp	r3, #0
 8003ff4:	bf08      	it	eq
 8003ff6:	4623      	moveq	r3, r4
 8003ff8:	2c10      	cmp	r4, #16
 8003ffa:	9305      	str	r3, [sp, #20]
 8003ffc:	46a0      	mov	r8, r4
 8003ffe:	bfa8      	it	ge
 8004000:	f04f 0810 	movge.w	r8, #16
 8004004:	f7fc fa2a 	bl	800045c <__aeabi_ui2d>
 8004008:	2c09      	cmp	r4, #9
 800400a:	4682      	mov	sl, r0
 800400c:	468b      	mov	fp, r1
 800400e:	dc13      	bgt.n	8004038 <_strtod_l+0x3d0>
 8004010:	9b06      	ldr	r3, [sp, #24]
 8004012:	2b00      	cmp	r3, #0
 8004014:	f43f ae67 	beq.w	8003ce6 <_strtod_l+0x7e>
 8004018:	9b06      	ldr	r3, [sp, #24]
 800401a:	dd7a      	ble.n	8004112 <_strtod_l+0x4aa>
 800401c:	2b16      	cmp	r3, #22
 800401e:	dc61      	bgt.n	80040e4 <_strtod_l+0x47c>
 8004020:	4a75      	ldr	r2, [pc, #468]	; (80041f8 <_strtod_l+0x590>)
 8004022:	eb02 0ec3 	add.w	lr, r2, r3, lsl #3
 8004026:	e9de 0100 	ldrd	r0, r1, [lr]
 800402a:	4652      	mov	r2, sl
 800402c:	465b      	mov	r3, fp
 800402e:	f7fc fa8f 	bl	8000550 <__aeabi_dmul>
 8004032:	4682      	mov	sl, r0
 8004034:	468b      	mov	fp, r1
 8004036:	e656      	b.n	8003ce6 <_strtod_l+0x7e>
 8004038:	4b6f      	ldr	r3, [pc, #444]	; (80041f8 <_strtod_l+0x590>)
 800403a:	eb03 03c8 	add.w	r3, r3, r8, lsl #3
 800403e:	e953 2312 	ldrd	r2, r3, [r3, #-72]	; 0x48
 8004042:	f7fc fa85 	bl	8000550 <__aeabi_dmul>
 8004046:	4606      	mov	r6, r0
 8004048:	4628      	mov	r0, r5
 800404a:	460f      	mov	r7, r1
 800404c:	f7fc fa06 	bl	800045c <__aeabi_ui2d>
 8004050:	4602      	mov	r2, r0
 8004052:	460b      	mov	r3, r1
 8004054:	4630      	mov	r0, r6
 8004056:	4639      	mov	r1, r7
 8004058:	f7fc f8c4 	bl	80001e4 <__adddf3>
 800405c:	2c0f      	cmp	r4, #15
 800405e:	4682      	mov	sl, r0
 8004060:	468b      	mov	fp, r1
 8004062:	ddd5      	ble.n	8004010 <_strtod_l+0x3a8>
 8004064:	9b06      	ldr	r3, [sp, #24]
 8004066:	eba4 0808 	sub.w	r8, r4, r8
 800406a:	4498      	add	r8, r3
 800406c:	f1b8 0f00 	cmp.w	r8, #0
 8004070:	f340 8096 	ble.w	80041a0 <_strtod_l+0x538>
 8004074:	f018 030f 	ands.w	r3, r8, #15
 8004078:	d00a      	beq.n	8004090 <_strtod_l+0x428>
 800407a:	495f      	ldr	r1, [pc, #380]	; (80041f8 <_strtod_l+0x590>)
 800407c:	eb01 01c3 	add.w	r1, r1, r3, lsl #3
 8004080:	4652      	mov	r2, sl
 8004082:	465b      	mov	r3, fp
 8004084:	e9d1 0100 	ldrd	r0, r1, [r1]
 8004088:	f7fc fa62 	bl	8000550 <__aeabi_dmul>
 800408c:	4682      	mov	sl, r0
 800408e:	468b      	mov	fp, r1
 8004090:	f038 080f 	bics.w	r8, r8, #15
 8004094:	d073      	beq.n	800417e <_strtod_l+0x516>
 8004096:	f5b8 7f9a 	cmp.w	r8, #308	; 0x134
 800409a:	dd47      	ble.n	800412c <_strtod_l+0x4c4>
 800409c:	2400      	movs	r4, #0
 800409e:	46a0      	mov	r8, r4
 80040a0:	9407      	str	r4, [sp, #28]
 80040a2:	9405      	str	r4, [sp, #20]
 80040a4:	2322      	movs	r3, #34	; 0x22
 80040a6:	f8df b158 	ldr.w	fp, [pc, #344]	; 8004200 <_strtod_l+0x598>
 80040aa:	f8c9 3000 	str.w	r3, [r9]
 80040ae:	f04f 0a00 	mov.w	sl, #0
 80040b2:	9b07      	ldr	r3, [sp, #28]
 80040b4:	2b00      	cmp	r3, #0
 80040b6:	f43f ae16 	beq.w	8003ce6 <_strtod_l+0x7e>
 80040ba:	991c      	ldr	r1, [sp, #112]	; 0x70
 80040bc:	4648      	mov	r0, r9
 80040be:	f000 ff54 	bl	8004f6a <_Bfree>
 80040c2:	9905      	ldr	r1, [sp, #20]
 80040c4:	4648      	mov	r0, r9
 80040c6:	f000 ff50 	bl	8004f6a <_Bfree>
 80040ca:	4641      	mov	r1, r8
 80040cc:	4648      	mov	r0, r9
 80040ce:	f000 ff4c 	bl	8004f6a <_Bfree>
 80040d2:	9907      	ldr	r1, [sp, #28]
 80040d4:	4648      	mov	r0, r9
 80040d6:	f000 ff48 	bl	8004f6a <_Bfree>
 80040da:	4621      	mov	r1, r4
 80040dc:	4648      	mov	r0, r9
 80040de:	f000 ff44 	bl	8004f6a <_Bfree>
 80040e2:	e600      	b.n	8003ce6 <_strtod_l+0x7e>
 80040e4:	9a06      	ldr	r2, [sp, #24]
 80040e6:	f1c4 0325 	rsb	r3, r4, #37	; 0x25
 80040ea:	4293      	cmp	r3, r2
 80040ec:	dbba      	blt.n	8004064 <_strtod_l+0x3fc>
 80040ee:	4d42      	ldr	r5, [pc, #264]	; (80041f8 <_strtod_l+0x590>)
 80040f0:	f1c4 040f 	rsb	r4, r4, #15
 80040f4:	eb05 01c4 	add.w	r1, r5, r4, lsl #3
 80040f8:	4652      	mov	r2, sl
 80040fa:	465b      	mov	r3, fp
 80040fc:	e9d1 0100 	ldrd	r0, r1, [r1]
 8004100:	f7fc fa26 	bl	8000550 <__aeabi_dmul>
 8004104:	9b06      	ldr	r3, [sp, #24]
 8004106:	1b1c      	subs	r4, r3, r4
 8004108:	eb05 05c4 	add.w	r5, r5, r4, lsl #3
 800410c:	e9d5 2300 	ldrd	r2, r3, [r5]
 8004110:	e78d      	b.n	800402e <_strtod_l+0x3c6>
 8004112:	f113 0f16 	cmn.w	r3, #22
 8004116:	dba5      	blt.n	8004064 <_strtod_l+0x3fc>
 8004118:	4a37      	ldr	r2, [pc, #220]	; (80041f8 <_strtod_l+0x590>)
 800411a:	eba2 02c3 	sub.w	r2, r2, r3, lsl #3
 800411e:	e9d2 2300 	ldrd	r2, r3, [r2]
 8004122:	4650      	mov	r0, sl
 8004124:	4659      	mov	r1, fp
 8004126:	f7fc fb3d 	bl	80007a4 <__aeabi_ddiv>
 800412a:	e782      	b.n	8004032 <_strtod_l+0x3ca>
 800412c:	2300      	movs	r3, #0
 800412e:	4e33      	ldr	r6, [pc, #204]	; (80041fc <_strtod_l+0x594>)
 8004130:	ea4f 1828 	mov.w	r8, r8, asr #4
 8004134:	4650      	mov	r0, sl
 8004136:	4659      	mov	r1, fp
 8004138:	461d      	mov	r5, r3
 800413a:	f1b8 0f01 	cmp.w	r8, #1
 800413e:	dc21      	bgt.n	8004184 <_strtod_l+0x51c>
 8004140:	b10b      	cbz	r3, 8004146 <_strtod_l+0x4de>
 8004142:	4682      	mov	sl, r0
 8004144:	468b      	mov	fp, r1
 8004146:	4b2d      	ldr	r3, [pc, #180]	; (80041fc <_strtod_l+0x594>)
 8004148:	f1ab 7b54 	sub.w	fp, fp, #55574528	; 0x3500000
 800414c:	eb03 05c5 	add.w	r5, r3, r5, lsl #3
 8004150:	4652      	mov	r2, sl
 8004152:	465b      	mov	r3, fp
 8004154:	e9d5 0100 	ldrd	r0, r1, [r5]
 8004158:	f7fc f9fa 	bl	8000550 <__aeabi_dmul>
 800415c:	4b28      	ldr	r3, [pc, #160]	; (8004200 <_strtod_l+0x598>)
 800415e:	460a      	mov	r2, r1
 8004160:	400b      	ands	r3, r1
 8004162:	4928      	ldr	r1, [pc, #160]	; (8004204 <_strtod_l+0x59c>)
 8004164:	428b      	cmp	r3, r1
 8004166:	4682      	mov	sl, r0
 8004168:	d898      	bhi.n	800409c <_strtod_l+0x434>
 800416a:	f5a1 1180 	sub.w	r1, r1, #1048576	; 0x100000
 800416e:	428b      	cmp	r3, r1
 8004170:	bf86      	itte	hi
 8004172:	f8df b098 	ldrhi.w	fp, [pc, #152]	; 800420c <_strtod_l+0x5a4>
 8004176:	f04f 3aff 	movhi.w	sl, #4294967295
 800417a:	f102 7b54 	addls.w	fp, r2, #55574528	; 0x3500000
 800417e:	2300      	movs	r3, #0
 8004180:	9304      	str	r3, [sp, #16]
 8004182:	e077      	b.n	8004274 <_strtod_l+0x60c>
 8004184:	f018 0f01 	tst.w	r8, #1
 8004188:	d006      	beq.n	8004198 <_strtod_l+0x530>
 800418a:	eb06 03c5 	add.w	r3, r6, r5, lsl #3
 800418e:	e9d3 2300 	ldrd	r2, r3, [r3]
 8004192:	f7fc f9dd 	bl	8000550 <__aeabi_dmul>
 8004196:	2301      	movs	r3, #1
 8004198:	3501      	adds	r5, #1
 800419a:	ea4f 0868 	mov.w	r8, r8, asr #1
 800419e:	e7cc      	b.n	800413a <_strtod_l+0x4d2>
 80041a0:	d0ed      	beq.n	800417e <_strtod_l+0x516>
 80041a2:	f1c8 0800 	rsb	r8, r8, #0
 80041a6:	f018 020f 	ands.w	r2, r8, #15
 80041aa:	d00a      	beq.n	80041c2 <_strtod_l+0x55a>
 80041ac:	4b12      	ldr	r3, [pc, #72]	; (80041f8 <_strtod_l+0x590>)
 80041ae:	eb03 03c2 	add.w	r3, r3, r2, lsl #3
 80041b2:	4650      	mov	r0, sl
 80041b4:	4659      	mov	r1, fp
 80041b6:	e9d3 2300 	ldrd	r2, r3, [r3]
 80041ba:	f7fc faf3 	bl	80007a4 <__aeabi_ddiv>
 80041be:	4682      	mov	sl, r0
 80041c0:	468b      	mov	fp, r1
 80041c2:	ea5f 1828 	movs.w	r8, r8, asr #4
 80041c6:	d0da      	beq.n	800417e <_strtod_l+0x516>
 80041c8:	f1b8 0f1f 	cmp.w	r8, #31
 80041cc:	dd20      	ble.n	8004210 <_strtod_l+0x5a8>
 80041ce:	2400      	movs	r4, #0
 80041d0:	46a0      	mov	r8, r4
 80041d2:	9407      	str	r4, [sp, #28]
 80041d4:	9405      	str	r4, [sp, #20]
 80041d6:	2322      	movs	r3, #34	; 0x22
 80041d8:	f04f 0a00 	mov.w	sl, #0
 80041dc:	f04f 0b00 	mov.w	fp, #0
 80041e0:	f8c9 3000 	str.w	r3, [r9]
 80041e4:	e765      	b.n	80040b2 <_strtod_l+0x44a>
 80041e6:	bf00      	nop
 80041e8:	08005870 	.word	0x08005870
 80041ec:	08005873 	.word	0x08005873
 80041f0:	08005879 	.word	0x08005879
 80041f4:	08005890 	.word	0x08005890
 80041f8:	08005908 	.word	0x08005908
 80041fc:	080058e0 	.word	0x080058e0
 8004200:	7ff00000 	.word	0x7ff00000
 8004204:	7ca00000 	.word	0x7ca00000
 8004208:	fff80000 	.word	0xfff80000
 800420c:	7fefffff 	.word	0x7fefffff
 8004210:	f018 0310 	ands.w	r3, r8, #16
 8004214:	bf18      	it	ne
 8004216:	236a      	movne	r3, #106	; 0x6a
 8004218:	4da0      	ldr	r5, [pc, #640]	; (800449c <_strtod_l+0x834>)
 800421a:	9304      	str	r3, [sp, #16]
 800421c:	4650      	mov	r0, sl
 800421e:	4659      	mov	r1, fp
 8004220:	2300      	movs	r3, #0
 8004222:	f1b8 0f00 	cmp.w	r8, #0
 8004226:	f300 810a 	bgt.w	800443e <_strtod_l+0x7d6>
 800422a:	b10b      	cbz	r3, 8004230 <_strtod_l+0x5c8>
 800422c:	4682      	mov	sl, r0
 800422e:	468b      	mov	fp, r1
 8004230:	9b04      	ldr	r3, [sp, #16]
 8004232:	b1bb      	cbz	r3, 8004264 <_strtod_l+0x5fc>
 8004234:	f3cb 530a 	ubfx	r3, fp, #20, #11
 8004238:	f1c3 036b 	rsb	r3, r3, #107	; 0x6b
 800423c:	2b00      	cmp	r3, #0
 800423e:	4659      	mov	r1, fp
 8004240:	dd10      	ble.n	8004264 <_strtod_l+0x5fc>
 8004242:	2b1f      	cmp	r3, #31
 8004244:	f340 8107 	ble.w	8004456 <_strtod_l+0x7ee>
 8004248:	2b34      	cmp	r3, #52	; 0x34
 800424a:	bfde      	ittt	le
 800424c:	3b20      	suble	r3, #32
 800424e:	f04f 32ff 	movle.w	r2, #4294967295
 8004252:	fa02 f303 	lslle.w	r3, r2, r3
 8004256:	f04f 0a00 	mov.w	sl, #0
 800425a:	bfcc      	ite	gt
 800425c:	f04f 7b5c 	movgt.w	fp, #57671680	; 0x3700000
 8004260:	ea03 0b01 	andle.w	fp, r3, r1
 8004264:	2200      	movs	r2, #0
 8004266:	2300      	movs	r3, #0
 8004268:	4650      	mov	r0, sl
 800426a:	4659      	mov	r1, fp
 800426c:	f7fc fbd8 	bl	8000a20 <__aeabi_dcmpeq>
 8004270:	2800      	cmp	r0, #0
 8004272:	d1ac      	bne.n	80041ce <_strtod_l+0x566>
 8004274:	9b07      	ldr	r3, [sp, #28]
 8004276:	9300      	str	r3, [sp, #0]
 8004278:	9a05      	ldr	r2, [sp, #20]
 800427a:	9908      	ldr	r1, [sp, #32]
 800427c:	4623      	mov	r3, r4
 800427e:	4648      	mov	r0, r9
 8004280:	f000 fec5 	bl	800500e <__s2b>
 8004284:	9007      	str	r0, [sp, #28]
 8004286:	2800      	cmp	r0, #0
 8004288:	f43f af08 	beq.w	800409c <_strtod_l+0x434>
 800428c:	9a06      	ldr	r2, [sp, #24]
 800428e:	9b06      	ldr	r3, [sp, #24]
 8004290:	2a00      	cmp	r2, #0
 8004292:	f1c3 0300 	rsb	r3, r3, #0
 8004296:	bfa8      	it	ge
 8004298:	2300      	movge	r3, #0
 800429a:	930e      	str	r3, [sp, #56]	; 0x38
 800429c:	2400      	movs	r4, #0
 800429e:	ea22 73e2 	bic.w	r3, r2, r2, asr #31
 80042a2:	9316      	str	r3, [sp, #88]	; 0x58
 80042a4:	46a0      	mov	r8, r4
 80042a6:	9b07      	ldr	r3, [sp, #28]
 80042a8:	4648      	mov	r0, r9
 80042aa:	6859      	ldr	r1, [r3, #4]
 80042ac:	f000 fe29 	bl	8004f02 <_Balloc>
 80042b0:	9005      	str	r0, [sp, #20]
 80042b2:	2800      	cmp	r0, #0
 80042b4:	f43f aef6 	beq.w	80040a4 <_strtod_l+0x43c>
 80042b8:	9b07      	ldr	r3, [sp, #28]
 80042ba:	691a      	ldr	r2, [r3, #16]
 80042bc:	3202      	adds	r2, #2
 80042be:	f103 010c 	add.w	r1, r3, #12
 80042c2:	0092      	lsls	r2, r2, #2
 80042c4:	300c      	adds	r0, #12
 80042c6:	f000 fe11 	bl	8004eec <memcpy>
 80042ca:	aa1e      	add	r2, sp, #120	; 0x78
 80042cc:	a91d      	add	r1, sp, #116	; 0x74
 80042ce:	ec4b ab10 	vmov	d0, sl, fp
 80042d2:	4648      	mov	r0, r9
 80042d4:	e9cd ab08 	strd	sl, fp, [sp, #32]
 80042d8:	f001 f954 	bl	8005584 <__d2b>
 80042dc:	901c      	str	r0, [sp, #112]	; 0x70
 80042de:	2800      	cmp	r0, #0
 80042e0:	f43f aee0 	beq.w	80040a4 <_strtod_l+0x43c>
 80042e4:	2101      	movs	r1, #1
 80042e6:	4648      	mov	r0, r9
 80042e8:	f000 ff1d 	bl	8005126 <__i2b>
 80042ec:	4680      	mov	r8, r0
 80042ee:	2800      	cmp	r0, #0
 80042f0:	f43f aed8 	beq.w	80040a4 <_strtod_l+0x43c>
 80042f4:	9e1d      	ldr	r6, [sp, #116]	; 0x74
 80042f6:	9a1e      	ldr	r2, [sp, #120]	; 0x78
 80042f8:	2e00      	cmp	r6, #0
 80042fa:	bfab      	itete	ge
 80042fc:	9b0e      	ldrge	r3, [sp, #56]	; 0x38
 80042fe:	9b16      	ldrlt	r3, [sp, #88]	; 0x58
 8004300:	9d16      	ldrge	r5, [sp, #88]	; 0x58
 8004302:	9f0e      	ldrlt	r7, [sp, #56]	; 0x38
 8004304:	bfac      	ite	ge
 8004306:	18f7      	addge	r7, r6, r3
 8004308:	1b9d      	sublt	r5, r3, r6
 800430a:	9b04      	ldr	r3, [sp, #16]
 800430c:	1af6      	subs	r6, r6, r3
 800430e:	4416      	add	r6, r2
 8004310:	4b63      	ldr	r3, [pc, #396]	; (80044a0 <_strtod_l+0x838>)
 8004312:	3e01      	subs	r6, #1
 8004314:	429e      	cmp	r6, r3
 8004316:	f1c2 0236 	rsb	r2, r2, #54	; 0x36
 800431a:	f280 80af 	bge.w	800447c <_strtod_l+0x814>
 800431e:	1b9b      	subs	r3, r3, r6
 8004320:	2b1f      	cmp	r3, #31
 8004322:	eba2 0203 	sub.w	r2, r2, r3
 8004326:	f04f 0101 	mov.w	r1, #1
 800432a:	f300 809b 	bgt.w	8004464 <_strtod_l+0x7fc>
 800432e:	fa01 f303 	lsl.w	r3, r1, r3
 8004332:	930f      	str	r3, [sp, #60]	; 0x3c
 8004334:	2300      	movs	r3, #0
 8004336:	930a      	str	r3, [sp, #40]	; 0x28
 8004338:	18be      	adds	r6, r7, r2
 800433a:	9b04      	ldr	r3, [sp, #16]
 800433c:	42b7      	cmp	r7, r6
 800433e:	4415      	add	r5, r2
 8004340:	441d      	add	r5, r3
 8004342:	463b      	mov	r3, r7
 8004344:	bfa8      	it	ge
 8004346:	4633      	movge	r3, r6
 8004348:	42ab      	cmp	r3, r5
 800434a:	bfa8      	it	ge
 800434c:	462b      	movge	r3, r5
 800434e:	2b00      	cmp	r3, #0
 8004350:	bfc2      	ittt	gt
 8004352:	1af6      	subgt	r6, r6, r3
 8004354:	1aed      	subgt	r5, r5, r3
 8004356:	1aff      	subgt	r7, r7, r3
 8004358:	9b0e      	ldr	r3, [sp, #56]	; 0x38
 800435a:	b1bb      	cbz	r3, 800438c <_strtod_l+0x724>
 800435c:	4641      	mov	r1, r8
 800435e:	461a      	mov	r2, r3
 8004360:	4648      	mov	r0, r9
 8004362:	f000 ff7f 	bl	8005264 <__pow5mult>
 8004366:	4680      	mov	r8, r0
 8004368:	2800      	cmp	r0, #0
 800436a:	f43f ae9b 	beq.w	80040a4 <_strtod_l+0x43c>
 800436e:	4601      	mov	r1, r0
 8004370:	9a1c      	ldr	r2, [sp, #112]	; 0x70
 8004372:	4648      	mov	r0, r9
 8004374:	f000 fee0 	bl	8005138 <__multiply>
 8004378:	900c      	str	r0, [sp, #48]	; 0x30
 800437a:	2800      	cmp	r0, #0
 800437c:	f43f ae92 	beq.w	80040a4 <_strtod_l+0x43c>
 8004380:	991c      	ldr	r1, [sp, #112]	; 0x70
 8004382:	4648      	mov	r0, r9
 8004384:	f000 fdf1 	bl	8004f6a <_Bfree>
 8004388:	9b0c      	ldr	r3, [sp, #48]	; 0x30
 800438a:	931c      	str	r3, [sp, #112]	; 0x70
 800438c:	2e00      	cmp	r6, #0
 800438e:	dc7a      	bgt.n	8004486 <_strtod_l+0x81e>
 8004390:	9b06      	ldr	r3, [sp, #24]
 8004392:	2b00      	cmp	r3, #0
 8004394:	dd08      	ble.n	80043a8 <_strtod_l+0x740>
 8004396:	9a16      	ldr	r2, [sp, #88]	; 0x58
 8004398:	9905      	ldr	r1, [sp, #20]
 800439a:	4648      	mov	r0, r9
 800439c:	f000 ff62 	bl	8005264 <__pow5mult>
 80043a0:	9005      	str	r0, [sp, #20]
 80043a2:	2800      	cmp	r0, #0
 80043a4:	f43f ae7e 	beq.w	80040a4 <_strtod_l+0x43c>
 80043a8:	2d00      	cmp	r5, #0
 80043aa:	dd08      	ble.n	80043be <_strtod_l+0x756>
 80043ac:	462a      	mov	r2, r5
 80043ae:	9905      	ldr	r1, [sp, #20]
 80043b0:	4648      	mov	r0, r9
 80043b2:	f000 ffa5 	bl	8005300 <__lshift>
 80043b6:	9005      	str	r0, [sp, #20]
 80043b8:	2800      	cmp	r0, #0
 80043ba:	f43f ae73 	beq.w	80040a4 <_strtod_l+0x43c>
 80043be:	2f00      	cmp	r7, #0
 80043c0:	dd08      	ble.n	80043d4 <_strtod_l+0x76c>
 80043c2:	4641      	mov	r1, r8
 80043c4:	463a      	mov	r2, r7
 80043c6:	4648      	mov	r0, r9
 80043c8:	f000 ff9a 	bl	8005300 <__lshift>
 80043cc:	4680      	mov	r8, r0
 80043ce:	2800      	cmp	r0, #0
 80043d0:	f43f ae68 	beq.w	80040a4 <_strtod_l+0x43c>
 80043d4:	9a05      	ldr	r2, [sp, #20]
 80043d6:	991c      	ldr	r1, [sp, #112]	; 0x70
 80043d8:	4648      	mov	r0, r9
 80043da:	f000 ffff 	bl	80053dc <__mdiff>
 80043de:	4604      	mov	r4, r0
 80043e0:	2800      	cmp	r0, #0
 80043e2:	f43f ae5f 	beq.w	80040a4 <_strtod_l+0x43c>
 80043e6:	68c3      	ldr	r3, [r0, #12]
 80043e8:	930c      	str	r3, [sp, #48]	; 0x30
 80043ea:	2300      	movs	r3, #0
 80043ec:	60c3      	str	r3, [r0, #12]
 80043ee:	4641      	mov	r1, r8
 80043f0:	f000 ffda 	bl	80053a8 <__mcmp>
 80043f4:	2800      	cmp	r0, #0
 80043f6:	da55      	bge.n	80044a4 <_strtod_l+0x83c>
 80043f8:	9b0c      	ldr	r3, [sp, #48]	; 0x30
 80043fa:	b9e3      	cbnz	r3, 8004436 <_strtod_l+0x7ce>
 80043fc:	f1ba 0f00 	cmp.w	sl, #0
 8004400:	d119      	bne.n	8004436 <_strtod_l+0x7ce>
 8004402:	f3cb 0313 	ubfx	r3, fp, #0, #20
 8004406:	b9b3      	cbnz	r3, 8004436 <_strtod_l+0x7ce>
 8004408:	f02b 4300 	bic.w	r3, fp, #2147483648	; 0x80000000
 800440c:	0d1b      	lsrs	r3, r3, #20
 800440e:	051b      	lsls	r3, r3, #20
 8004410:	f1b3 6fd6 	cmp.w	r3, #112197632	; 0x6b00000
 8004414:	d90f      	bls.n	8004436 <_strtod_l+0x7ce>
 8004416:	6963      	ldr	r3, [r4, #20]
 8004418:	b913      	cbnz	r3, 8004420 <_strtod_l+0x7b8>
 800441a:	6923      	ldr	r3, [r4, #16]
 800441c:	2b01      	cmp	r3, #1
 800441e:	dd0a      	ble.n	8004436 <_strtod_l+0x7ce>
 8004420:	4621      	mov	r1, r4
 8004422:	2201      	movs	r2, #1
 8004424:	4648      	mov	r0, r9
 8004426:	f000 ff6b 	bl	8005300 <__lshift>
 800442a:	4641      	mov	r1, r8
 800442c:	4604      	mov	r4, r0
 800442e:	f000 ffbb 	bl	80053a8 <__mcmp>
 8004432:	2800      	cmp	r0, #0
 8004434:	dc67      	bgt.n	8004506 <_strtod_l+0x89e>
 8004436:	9b04      	ldr	r3, [sp, #16]
 8004438:	2b00      	cmp	r3, #0
 800443a:	d171      	bne.n	8004520 <_strtod_l+0x8b8>
 800443c:	e63d      	b.n	80040ba <_strtod_l+0x452>
 800443e:	f018 0f01 	tst.w	r8, #1
 8004442:	d004      	beq.n	800444e <_strtod_l+0x7e6>
 8004444:	e9d5 2300 	ldrd	r2, r3, [r5]
 8004448:	f7fc f882 	bl	8000550 <__aeabi_dmul>
 800444c:	2301      	movs	r3, #1
 800444e:	ea4f 0868 	mov.w	r8, r8, asr #1
 8004452:	3508      	adds	r5, #8
 8004454:	e6e5      	b.n	8004222 <_strtod_l+0x5ba>
 8004456:	f04f 32ff 	mov.w	r2, #4294967295
 800445a:	fa02 f303 	lsl.w	r3, r2, r3
 800445e:	ea03 0a0a 	and.w	sl, r3, sl
 8004462:	e6ff      	b.n	8004264 <_strtod_l+0x5fc>
 8004464:	f1c6 467f 	rsb	r6, r6, #4278190080	; 0xff000000
 8004468:	f506 067f 	add.w	r6, r6, #16711680	; 0xff0000
 800446c:	f506 467b 	add.w	r6, r6, #64256	; 0xfb00
 8004470:	36e2      	adds	r6, #226	; 0xe2
 8004472:	fa01 f306 	lsl.w	r3, r1, r6
 8004476:	930a      	str	r3, [sp, #40]	; 0x28
 8004478:	910f      	str	r1, [sp, #60]	; 0x3c
 800447a:	e75d      	b.n	8004338 <_strtod_l+0x6d0>
 800447c:	2300      	movs	r3, #0
 800447e:	930a      	str	r3, [sp, #40]	; 0x28
 8004480:	2301      	movs	r3, #1
 8004482:	930f      	str	r3, [sp, #60]	; 0x3c
 8004484:	e758      	b.n	8004338 <_strtod_l+0x6d0>
 8004486:	4632      	mov	r2, r6
 8004488:	991c      	ldr	r1, [sp, #112]	; 0x70
 800448a:	4648      	mov	r0, r9
 800448c:	f000 ff38 	bl	8005300 <__lshift>
 8004490:	901c      	str	r0, [sp, #112]	; 0x70
 8004492:	2800      	cmp	r0, #0
 8004494:	f47f af7c 	bne.w	8004390 <_strtod_l+0x728>
 8004498:	e604      	b.n	80040a4 <_strtod_l+0x43c>
 800449a:	bf00      	nop
 800449c:	080058a8 	.word	0x080058a8
 80044a0:	fffffc02 	.word	0xfffffc02
 80044a4:	465d      	mov	r5, fp
 80044a6:	f040 8086 	bne.w	80045b6 <_strtod_l+0x94e>
 80044aa:	9a0c      	ldr	r2, [sp, #48]	; 0x30
 80044ac:	f3cb 0313 	ubfx	r3, fp, #0, #20
 80044b0:	b32a      	cbz	r2, 80044fe <_strtod_l+0x896>
 80044b2:	4aaf      	ldr	r2, [pc, #700]	; (8004770 <_strtod_l+0xb08>)
 80044b4:	4293      	cmp	r3, r2
 80044b6:	d153      	bne.n	8004560 <_strtod_l+0x8f8>
 80044b8:	9b04      	ldr	r3, [sp, #16]
 80044ba:	4650      	mov	r0, sl
 80044bc:	b1d3      	cbz	r3, 80044f4 <_strtod_l+0x88c>
 80044be:	4aad      	ldr	r2, [pc, #692]	; (8004774 <_strtod_l+0xb0c>)
 80044c0:	402a      	ands	r2, r5
 80044c2:	f1b2 6fd4 	cmp.w	r2, #111149056	; 0x6a00000
 80044c6:	f04f 31ff 	mov.w	r1, #4294967295
 80044ca:	d816      	bhi.n	80044fa <_strtod_l+0x892>
 80044cc:	0d12      	lsrs	r2, r2, #20
 80044ce:	f1c2 036b 	rsb	r3, r2, #107	; 0x6b
 80044d2:	fa01 f303 	lsl.w	r3, r1, r3
 80044d6:	4298      	cmp	r0, r3
 80044d8:	d142      	bne.n	8004560 <_strtod_l+0x8f8>
 80044da:	4ba7      	ldr	r3, [pc, #668]	; (8004778 <_strtod_l+0xb10>)
 80044dc:	429d      	cmp	r5, r3
 80044de:	d102      	bne.n	80044e6 <_strtod_l+0x87e>
 80044e0:	3001      	adds	r0, #1
 80044e2:	f43f addf 	beq.w	80040a4 <_strtod_l+0x43c>
 80044e6:	4ba3      	ldr	r3, [pc, #652]	; (8004774 <_strtod_l+0xb0c>)
 80044e8:	402b      	ands	r3, r5
 80044ea:	f503 1b80 	add.w	fp, r3, #1048576	; 0x100000
 80044ee:	f04f 0a00 	mov.w	sl, #0
 80044f2:	e7a0      	b.n	8004436 <_strtod_l+0x7ce>
 80044f4:	f04f 33ff 	mov.w	r3, #4294967295
 80044f8:	e7ed      	b.n	80044d6 <_strtod_l+0x86e>
 80044fa:	460b      	mov	r3, r1
 80044fc:	e7eb      	b.n	80044d6 <_strtod_l+0x86e>
 80044fe:	bb7b      	cbnz	r3, 8004560 <_strtod_l+0x8f8>
 8004500:	f1ba 0f00 	cmp.w	sl, #0
 8004504:	d12c      	bne.n	8004560 <_strtod_l+0x8f8>
 8004506:	9904      	ldr	r1, [sp, #16]
 8004508:	4a9a      	ldr	r2, [pc, #616]	; (8004774 <_strtod_l+0xb0c>)
 800450a:	465b      	mov	r3, fp
 800450c:	b1f1      	cbz	r1, 800454c <_strtod_l+0x8e4>
 800450e:	ea02 010b 	and.w	r1, r2, fp
 8004512:	f1b1 6fd6 	cmp.w	r1, #112197632	; 0x6b00000
 8004516:	dc19      	bgt.n	800454c <_strtod_l+0x8e4>
 8004518:	f1b1 7f5c 	cmp.w	r1, #57671680	; 0x3700000
 800451c:	f77f ae5b 	ble.w	80041d6 <_strtod_l+0x56e>
 8004520:	4a96      	ldr	r2, [pc, #600]	; (800477c <_strtod_l+0xb14>)
 8004522:	2300      	movs	r3, #0
 8004524:	e9cd 3214 	strd	r3, r2, [sp, #80]	; 0x50
 8004528:	4650      	mov	r0, sl
 800452a:	4659      	mov	r1, fp
 800452c:	e9dd 2314 	ldrd	r2, r3, [sp, #80]	; 0x50
 8004530:	f7fc f80e 	bl	8000550 <__aeabi_dmul>
 8004534:	4682      	mov	sl, r0
 8004536:	468b      	mov	fp, r1
 8004538:	2900      	cmp	r1, #0
 800453a:	f47f adbe 	bne.w	80040ba <_strtod_l+0x452>
 800453e:	2800      	cmp	r0, #0
 8004540:	f47f adbb 	bne.w	80040ba <_strtod_l+0x452>
 8004544:	2322      	movs	r3, #34	; 0x22
 8004546:	f8c9 3000 	str.w	r3, [r9]
 800454a:	e5b6      	b.n	80040ba <_strtod_l+0x452>
 800454c:	4013      	ands	r3, r2
 800454e:	f5a3 1380 	sub.w	r3, r3, #1048576	; 0x100000
 8004552:	ea6f 5b13 	mvn.w	fp, r3, lsr #20
 8004556:	ea6f 5b0b 	mvn.w	fp, fp, lsl #20
 800455a:	f04f 3aff 	mov.w	sl, #4294967295
 800455e:	e76a      	b.n	8004436 <_strtod_l+0x7ce>
 8004560:	9b0a      	ldr	r3, [sp, #40]	; 0x28
 8004562:	b193      	cbz	r3, 800458a <_strtod_l+0x922>
 8004564:	422b      	tst	r3, r5
 8004566:	f43f af66 	beq.w	8004436 <_strtod_l+0x7ce>
 800456a:	9b0c      	ldr	r3, [sp, #48]	; 0x30
 800456c:	9a04      	ldr	r2, [sp, #16]
 800456e:	4650      	mov	r0, sl
 8004570:	4659      	mov	r1, fp
 8004572:	b173      	cbz	r3, 8004592 <_strtod_l+0x92a>
 8004574:	f7ff fb5c 	bl	8003c30 <sulp>
 8004578:	4602      	mov	r2, r0
 800457a:	460b      	mov	r3, r1
 800457c:	e9dd 0108 	ldrd	r0, r1, [sp, #32]
 8004580:	f7fb fe30 	bl	80001e4 <__adddf3>
 8004584:	4682      	mov	sl, r0
 8004586:	468b      	mov	fp, r1
 8004588:	e755      	b.n	8004436 <_strtod_l+0x7ce>
 800458a:	9b0f      	ldr	r3, [sp, #60]	; 0x3c
 800458c:	ea13 0f0a 	tst.w	r3, sl
 8004590:	e7e9      	b.n	8004566 <_strtod_l+0x8fe>
 8004592:	f7ff fb4d 	bl	8003c30 <sulp>
 8004596:	4602      	mov	r2, r0
 8004598:	460b      	mov	r3, r1
 800459a:	e9dd 0108 	ldrd	r0, r1, [sp, #32]
 800459e:	f7fb fe1f 	bl	80001e0 <__aeabi_dsub>
 80045a2:	2200      	movs	r2, #0
 80045a4:	2300      	movs	r3, #0
 80045a6:	4682      	mov	sl, r0
 80045a8:	468b      	mov	fp, r1
 80045aa:	f7fc fa39 	bl	8000a20 <__aeabi_dcmpeq>
 80045ae:	2800      	cmp	r0, #0
 80045b0:	f47f ae11 	bne.w	80041d6 <_strtod_l+0x56e>
 80045b4:	e73f      	b.n	8004436 <_strtod_l+0x7ce>
 80045b6:	4641      	mov	r1, r8
 80045b8:	4620      	mov	r0, r4
 80045ba:	f001 f832 	bl	8005622 <__ratio>
 80045be:	ec57 6b10 	vmov	r6, r7, d0
 80045c2:	2200      	movs	r2, #0
 80045c4:	f04f 4380 	mov.w	r3, #1073741824	; 0x40000000
 80045c8:	ee10 0a10 	vmov	r0, s0
 80045cc:	4639      	mov	r1, r7
 80045ce:	f7fc fa3b 	bl	8000a48 <__aeabi_dcmple>
 80045d2:	2800      	cmp	r0, #0
 80045d4:	d077      	beq.n	80046c6 <_strtod_l+0xa5e>
 80045d6:	9b0c      	ldr	r3, [sp, #48]	; 0x30
 80045d8:	2b00      	cmp	r3, #0
 80045da:	d04a      	beq.n	8004672 <_strtod_l+0xa0a>
 80045dc:	4b68      	ldr	r3, [pc, #416]	; (8004780 <_strtod_l+0xb18>)
 80045de:	2200      	movs	r2, #0
 80045e0:	e9cd 230a 	strd	r2, r3, [sp, #40]	; 0x28
 80045e4:	4f66      	ldr	r7, [pc, #408]	; (8004780 <_strtod_l+0xb18>)
 80045e6:	2600      	movs	r6, #0
 80045e8:	4b62      	ldr	r3, [pc, #392]	; (8004774 <_strtod_l+0xb0c>)
 80045ea:	402b      	ands	r3, r5
 80045ec:	930f      	str	r3, [sp, #60]	; 0x3c
 80045ee:	9a0f      	ldr	r2, [sp, #60]	; 0x3c
 80045f0:	4b64      	ldr	r3, [pc, #400]	; (8004784 <_strtod_l+0xb1c>)
 80045f2:	429a      	cmp	r2, r3
 80045f4:	f040 80ce 	bne.w	8004794 <_strtod_l+0xb2c>
 80045f8:	e9dd 2308 	ldrd	r2, r3, [sp, #32]
 80045fc:	e9dd 010a 	ldrd	r0, r1, [sp, #40]	; 0x28
 8004600:	f1a5 7b54 	sub.w	fp, r5, #55574528	; 0x3500000
 8004604:	ec4b ab10 	vmov	d0, sl, fp
 8004608:	e9cd 2314 	strd	r2, r3, [sp, #80]	; 0x50
 800460c:	e9cd 010a 	strd	r0, r1, [sp, #40]	; 0x28
 8004610:	f000 ff42 	bl	8005498 <__ulp>
 8004614:	e9dd 010a 	ldrd	r0, r1, [sp, #40]	; 0x28
 8004618:	ec53 2b10 	vmov	r2, r3, d0
 800461c:	f7fb ff98 	bl	8000550 <__aeabi_dmul>
 8004620:	4652      	mov	r2, sl
 8004622:	465b      	mov	r3, fp
 8004624:	f7fb fdde 	bl	80001e4 <__adddf3>
 8004628:	460b      	mov	r3, r1
 800462a:	4952      	ldr	r1, [pc, #328]	; (8004774 <_strtod_l+0xb0c>)
 800462c:	4a56      	ldr	r2, [pc, #344]	; (8004788 <_strtod_l+0xb20>)
 800462e:	4019      	ands	r1, r3
 8004630:	4291      	cmp	r1, r2
 8004632:	4682      	mov	sl, r0
 8004634:	d95b      	bls.n	80046ee <_strtod_l+0xa86>
 8004636:	9b09      	ldr	r3, [sp, #36]	; 0x24
 8004638:	f102 7254 	add.w	r2, r2, #55574528	; 0x3500000
 800463c:	4293      	cmp	r3, r2
 800463e:	d103      	bne.n	8004648 <_strtod_l+0x9e0>
 8004640:	9b08      	ldr	r3, [sp, #32]
 8004642:	3301      	adds	r3, #1
 8004644:	f43f ad2e 	beq.w	80040a4 <_strtod_l+0x43c>
 8004648:	f8df b12c 	ldr.w	fp, [pc, #300]	; 8004778 <_strtod_l+0xb10>
 800464c:	f04f 3aff 	mov.w	sl, #4294967295
 8004650:	991c      	ldr	r1, [sp, #112]	; 0x70
 8004652:	4648      	mov	r0, r9
 8004654:	f000 fc89 	bl	8004f6a <_Bfree>
 8004658:	9905      	ldr	r1, [sp, #20]
 800465a:	4648      	mov	r0, r9
 800465c:	f000 fc85 	bl	8004f6a <_Bfree>
 8004660:	4641      	mov	r1, r8
 8004662:	4648      	mov	r0, r9
 8004664:	f000 fc81 	bl	8004f6a <_Bfree>
 8004668:	4621      	mov	r1, r4
 800466a:	4648      	mov	r0, r9
 800466c:	f000 fc7d 	bl	8004f6a <_Bfree>
 8004670:	e619      	b.n	80042a6 <_strtod_l+0x63e>
 8004672:	f1ba 0f00 	cmp.w	sl, #0
 8004676:	d11a      	bne.n	80046ae <_strtod_l+0xa46>
 8004678:	f3cb 0313 	ubfx	r3, fp, #0, #20
 800467c:	b9eb      	cbnz	r3, 80046ba <_strtod_l+0xa52>
 800467e:	2200      	movs	r2, #0
 8004680:	4b3f      	ldr	r3, [pc, #252]	; (8004780 <_strtod_l+0xb18>)
 8004682:	4630      	mov	r0, r6
 8004684:	4639      	mov	r1, r7
 8004686:	f7fc f9d5 	bl	8000a34 <__aeabi_dcmplt>
 800468a:	b9c8      	cbnz	r0, 80046c0 <_strtod_l+0xa58>
 800468c:	4630      	mov	r0, r6
 800468e:	4639      	mov	r1, r7
 8004690:	2200      	movs	r2, #0
 8004692:	4b3e      	ldr	r3, [pc, #248]	; (800478c <_strtod_l+0xb24>)
 8004694:	f7fb ff5c 	bl	8000550 <__aeabi_dmul>
 8004698:	4606      	mov	r6, r0
 800469a:	460f      	mov	r7, r1
 800469c:	f107 4300 	add.w	r3, r7, #2147483648	; 0x80000000
 80046a0:	9618      	str	r6, [sp, #96]	; 0x60
 80046a2:	9319      	str	r3, [sp, #100]	; 0x64
 80046a4:	e9dd 2318 	ldrd	r2, r3, [sp, #96]	; 0x60
 80046a8:	e9cd 230a 	strd	r2, r3, [sp, #40]	; 0x28
 80046ac:	e79c      	b.n	80045e8 <_strtod_l+0x980>
 80046ae:	f1ba 0f01 	cmp.w	sl, #1
 80046b2:	d102      	bne.n	80046ba <_strtod_l+0xa52>
 80046b4:	2d00      	cmp	r5, #0
 80046b6:	f43f ad8e 	beq.w	80041d6 <_strtod_l+0x56e>
 80046ba:	2200      	movs	r2, #0
 80046bc:	4b34      	ldr	r3, [pc, #208]	; (8004790 <_strtod_l+0xb28>)
 80046be:	e78f      	b.n	80045e0 <_strtod_l+0x978>
 80046c0:	2600      	movs	r6, #0
 80046c2:	4f32      	ldr	r7, [pc, #200]	; (800478c <_strtod_l+0xb24>)
 80046c4:	e7ea      	b.n	800469c <_strtod_l+0xa34>
 80046c6:	4b31      	ldr	r3, [pc, #196]	; (800478c <_strtod_l+0xb24>)
 80046c8:	4630      	mov	r0, r6
 80046ca:	4639      	mov	r1, r7
 80046cc:	2200      	movs	r2, #0
 80046ce:	f7fb ff3f 	bl	8000550 <__aeabi_dmul>
 80046d2:	9b0c      	ldr	r3, [sp, #48]	; 0x30
 80046d4:	4606      	mov	r6, r0
 80046d6:	460f      	mov	r7, r1
 80046d8:	b933      	cbnz	r3, 80046e8 <_strtod_l+0xa80>
 80046da:	f101 4300 	add.w	r3, r1, #2147483648	; 0x80000000
 80046de:	9010      	str	r0, [sp, #64]	; 0x40
 80046e0:	9311      	str	r3, [sp, #68]	; 0x44
 80046e2:	e9dd 2310 	ldrd	r2, r3, [sp, #64]	; 0x40
 80046e6:	e7df      	b.n	80046a8 <_strtod_l+0xa40>
 80046e8:	e9cd 6710 	strd	r6, r7, [sp, #64]	; 0x40
 80046ec:	e7f9      	b.n	80046e2 <_strtod_l+0xa7a>
 80046ee:	f103 7b54 	add.w	fp, r3, #55574528	; 0x3500000
 80046f2:	9b04      	ldr	r3, [sp, #16]
 80046f4:	2b00      	cmp	r3, #0
 80046f6:	d1ab      	bne.n	8004650 <_strtod_l+0x9e8>
 80046f8:	f02b 4300 	bic.w	r3, fp, #2147483648	; 0x80000000
 80046fc:	0d1b      	lsrs	r3, r3, #20
 80046fe:	9a0f      	ldr	r2, [sp, #60]	; 0x3c
 8004700:	051b      	lsls	r3, r3, #20
 8004702:	429a      	cmp	r2, r3
 8004704:	465d      	mov	r5, fp
 8004706:	d1a3      	bne.n	8004650 <_strtod_l+0x9e8>
 8004708:	4639      	mov	r1, r7
 800470a:	4630      	mov	r0, r6
 800470c:	f7fc f9ba 	bl	8000a84 <__aeabi_d2iz>
 8004710:	f7fb feb4 	bl	800047c <__aeabi_i2d>
 8004714:	460b      	mov	r3, r1
 8004716:	4602      	mov	r2, r0
 8004718:	4639      	mov	r1, r7
 800471a:	4630      	mov	r0, r6
 800471c:	f7fb fd60 	bl	80001e0 <__aeabi_dsub>
 8004720:	9b0c      	ldr	r3, [sp, #48]	; 0x30
 8004722:	4606      	mov	r6, r0
 8004724:	460f      	mov	r7, r1
 8004726:	b933      	cbnz	r3, 8004736 <_strtod_l+0xace>
 8004728:	f1ba 0f00 	cmp.w	sl, #0
 800472c:	d103      	bne.n	8004736 <_strtod_l+0xace>
 800472e:	f3cb 0513 	ubfx	r5, fp, #0, #20
 8004732:	2d00      	cmp	r5, #0
 8004734:	d06d      	beq.n	8004812 <_strtod_l+0xbaa>
 8004736:	a30a      	add	r3, pc, #40	; (adr r3, 8004760 <_strtod_l+0xaf8>)
 8004738:	e9d3 2300 	ldrd	r2, r3, [r3]
 800473c:	4630      	mov	r0, r6
 800473e:	4639      	mov	r1, r7
 8004740:	f7fc f978 	bl	8000a34 <__aeabi_dcmplt>
 8004744:	2800      	cmp	r0, #0
 8004746:	f47f acb8 	bne.w	80040ba <_strtod_l+0x452>
 800474a:	a307      	add	r3, pc, #28	; (adr r3, 8004768 <_strtod_l+0xb00>)
 800474c:	e9d3 2300 	ldrd	r2, r3, [r3]
 8004750:	4630      	mov	r0, r6
 8004752:	4639      	mov	r1, r7
 8004754:	f7fc f98c 	bl	8000a70 <__aeabi_dcmpgt>
 8004758:	2800      	cmp	r0, #0
 800475a:	f43f af79 	beq.w	8004650 <_strtod_l+0x9e8>
 800475e:	e4ac      	b.n	80040ba <_strtod_l+0x452>
 8004760:	94a03595 	.word	0x94a03595
 8004764:	3fdfffff 	.word	0x3fdfffff
 8004768:	35afe535 	.word	0x35afe535
 800476c:	3fe00000 	.word	0x3fe00000
 8004770:	000fffff 	.word	0x000fffff
 8004774:	7ff00000 	.word	0x7ff00000
 8004778:	7fefffff 	.word	0x7fefffff
 800477c:	39500000 	.word	0x39500000
 8004780:	3ff00000 	.word	0x3ff00000
 8004784:	7fe00000 	.word	0x7fe00000
 8004788:	7c9fffff 	.word	0x7c9fffff
 800478c:	3fe00000 	.word	0x3fe00000
 8004790:	bff00000 	.word	0xbff00000
 8004794:	9b04      	ldr	r3, [sp, #16]
 8004796:	b333      	cbz	r3, 80047e6 <_strtod_l+0xb7e>
 8004798:	9b0f      	ldr	r3, [sp, #60]	; 0x3c
 800479a:	f1b3 6fd4 	cmp.w	r3, #111149056	; 0x6a00000
 800479e:	d822      	bhi.n	80047e6 <_strtod_l+0xb7e>
 80047a0:	a327      	add	r3, pc, #156	; (adr r3, 8004840 <_strtod_l+0xbd8>)
 80047a2:	e9d3 2300 	ldrd	r2, r3, [r3]
 80047a6:	4630      	mov	r0, r6
 80047a8:	4639      	mov	r1, r7
 80047aa:	f7fc f94d 	bl	8000a48 <__aeabi_dcmple>
 80047ae:	b1a0      	cbz	r0, 80047da <_strtod_l+0xb72>
 80047b0:	4639      	mov	r1, r7
 80047b2:	4630      	mov	r0, r6
 80047b4:	f7fc f98e 	bl	8000ad4 <__aeabi_d2uiz>
 80047b8:	2800      	cmp	r0, #0
 80047ba:	bf08      	it	eq
 80047bc:	2001      	moveq	r0, #1
 80047be:	f7fb fe4d 	bl	800045c <__aeabi_ui2d>
 80047c2:	9b0c      	ldr	r3, [sp, #48]	; 0x30
 80047c4:	4606      	mov	r6, r0
 80047c6:	460f      	mov	r7, r1
 80047c8:	bb03      	cbnz	r3, 800480c <_strtod_l+0xba4>
 80047ca:	f101 4300 	add.w	r3, r1, #2147483648	; 0x80000000
 80047ce:	9012      	str	r0, [sp, #72]	; 0x48
 80047d0:	9313      	str	r3, [sp, #76]	; 0x4c
 80047d2:	e9dd 2312 	ldrd	r2, r3, [sp, #72]	; 0x48
 80047d6:	e9cd 230a 	strd	r2, r3, [sp, #40]	; 0x28
 80047da:	9b0b      	ldr	r3, [sp, #44]	; 0x2c
 80047dc:	9a0f      	ldr	r2, [sp, #60]	; 0x3c
 80047de:	f103 63d6 	add.w	r3, r3, #112197632	; 0x6b00000
 80047e2:	1a9b      	subs	r3, r3, r2
 80047e4:	930b      	str	r3, [sp, #44]	; 0x2c
 80047e6:	ed9d 0b08 	vldr	d0, [sp, #32]
 80047ea:	e9dd ab0a 	ldrd	sl, fp, [sp, #40]	; 0x28
 80047ee:	f000 fe53 	bl	8005498 <__ulp>
 80047f2:	4650      	mov	r0, sl
 80047f4:	ec53 2b10 	vmov	r2, r3, d0
 80047f8:	4659      	mov	r1, fp
 80047fa:	f7fb fea9 	bl	8000550 <__aeabi_dmul>
 80047fe:	e9dd 2308 	ldrd	r2, r3, [sp, #32]
 8004802:	f7fb fcef 	bl	80001e4 <__adddf3>
 8004806:	4682      	mov	sl, r0
 8004808:	468b      	mov	fp, r1
 800480a:	e772      	b.n	80046f2 <_strtod_l+0xa8a>
 800480c:	e9cd 6712 	strd	r6, r7, [sp, #72]	; 0x48
 8004810:	e7df      	b.n	80047d2 <_strtod_l+0xb6a>
 8004812:	a30d      	add	r3, pc, #52	; (adr r3, 8004848 <_strtod_l+0xbe0>)
 8004814:	e9d3 2300 	ldrd	r2, r3, [r3]
 8004818:	f7fc f90c 	bl	8000a34 <__aeabi_dcmplt>
 800481c:	e79c      	b.n	8004758 <_strtod_l+0xaf0>
 800481e:	2300      	movs	r3, #0
 8004820:	930d      	str	r3, [sp, #52]	; 0x34
 8004822:	9a17      	ldr	r2, [sp, #92]	; 0x5c
 8004824:	9b1b      	ldr	r3, [sp, #108]	; 0x6c
 8004826:	6013      	str	r3, [r2, #0]
 8004828:	f7ff ba61 	b.w	8003cee <_strtod_l+0x86>
 800482c:	2b65      	cmp	r3, #101	; 0x65
 800482e:	f04f 0200 	mov.w	r2, #0
 8004832:	f43f ab4e 	beq.w	8003ed2 <_strtod_l+0x26a>
 8004836:	2101      	movs	r1, #1
 8004838:	4614      	mov	r4, r2
 800483a:	9104      	str	r1, [sp, #16]
 800483c:	f7ff bacb 	b.w	8003dd6 <_strtod_l+0x16e>
 8004840:	ffc00000 	.word	0xffc00000
 8004844:	41dfffff 	.word	0x41dfffff
 8004848:	94a03595 	.word	0x94a03595
 800484c:	3fcfffff 	.word	0x3fcfffff

08004850 <strtod>:
 8004850:	4b07      	ldr	r3, [pc, #28]	; (8004870 <strtod+0x20>)
 8004852:	4a08      	ldr	r2, [pc, #32]	; (8004874 <strtod+0x24>)
 8004854:	b410      	push	{r4}
 8004856:	681c      	ldr	r4, [r3, #0]
 8004858:	6a23      	ldr	r3, [r4, #32]
 800485a:	2b00      	cmp	r3, #0
 800485c:	bf08      	it	eq
 800485e:	4613      	moveq	r3, r2
 8004860:	460a      	mov	r2, r1
 8004862:	4601      	mov	r1, r0
 8004864:	4620      	mov	r0, r4
 8004866:	f85d 4b04 	ldr.w	r4, [sp], #4
 800486a:	f7ff b9fd 	b.w	8003c68 <_strtod_l>
 800486e:	bf00      	nop
 8004870:	20000010 	.word	0x20000010
 8004874:	20000074 	.word	0x20000074

08004878 <rshift>:
 8004878:	b5f0      	push	{r4, r5, r6, r7, lr}
 800487a:	6906      	ldr	r6, [r0, #16]
 800487c:	114b      	asrs	r3, r1, #5
 800487e:	429e      	cmp	r6, r3
 8004880:	f100 0414 	add.w	r4, r0, #20
 8004884:	dd30      	ble.n	80048e8 <rshift+0x70>
 8004886:	f011 011f 	ands.w	r1, r1, #31
 800488a:	eb04 0686 	add.w	r6, r4, r6, lsl #2
 800488e:	eb04 0283 	add.w	r2, r4, r3, lsl #2
 8004892:	d108      	bne.n	80048a6 <rshift+0x2e>
 8004894:	4621      	mov	r1, r4
 8004896:	42b2      	cmp	r2, r6
 8004898:	460b      	mov	r3, r1
 800489a:	d211      	bcs.n	80048c0 <rshift+0x48>
 800489c:	f852 3b04 	ldr.w	r3, [r2], #4
 80048a0:	f841 3b04 	str.w	r3, [r1], #4
 80048a4:	e7f7      	b.n	8004896 <rshift+0x1e>
 80048a6:	f854 5023 	ldr.w	r5, [r4, r3, lsl #2]
 80048aa:	f1c1 0c20 	rsb	ip, r1, #32
 80048ae:	40cd      	lsrs	r5, r1
 80048b0:	3204      	adds	r2, #4
 80048b2:	4623      	mov	r3, r4
 80048b4:	42b2      	cmp	r2, r6
 80048b6:	4617      	mov	r7, r2
 80048b8:	d30c      	bcc.n	80048d4 <rshift+0x5c>
 80048ba:	601d      	str	r5, [r3, #0]
 80048bc:	b105      	cbz	r5, 80048c0 <rshift+0x48>
 80048be:	3304      	adds	r3, #4
 80048c0:	1b1a      	subs	r2, r3, r4
 80048c2:	42a3      	cmp	r3, r4
 80048c4:	ea4f 02a2 	mov.w	r2, r2, asr #2
 80048c8:	bf08      	it	eq
 80048ca:	2300      	moveq	r3, #0
 80048cc:	6102      	str	r2, [r0, #16]
 80048ce:	bf08      	it	eq
 80048d0:	6143      	streq	r3, [r0, #20]
 80048d2:	bdf0      	pop	{r4, r5, r6, r7, pc}
 80048d4:	683f      	ldr	r7, [r7, #0]
 80048d6:	fa07 f70c 	lsl.w	r7, r7, ip
 80048da:	433d      	orrs	r5, r7
 80048dc:	f843 5b04 	str.w	r5, [r3], #4
 80048e0:	f852 5b04 	ldr.w	r5, [r2], #4
 80048e4:	40cd      	lsrs	r5, r1
 80048e6:	e7e5      	b.n	80048b4 <rshift+0x3c>
 80048e8:	4623      	mov	r3, r4
 80048ea:	e7e9      	b.n	80048c0 <rshift+0x48>

080048ec <__hexdig_fun>:
 80048ec:	f1a0 0330 	sub.w	r3, r0, #48	; 0x30
 80048f0:	2b09      	cmp	r3, #9
 80048f2:	d802      	bhi.n	80048fa <__hexdig_fun+0xe>
 80048f4:	3820      	subs	r0, #32
 80048f6:	b2c0      	uxtb	r0, r0
 80048f8:	4770      	bx	lr
 80048fa:	f1a0 0361 	sub.w	r3, r0, #97	; 0x61
 80048fe:	2b05      	cmp	r3, #5
 8004900:	d801      	bhi.n	8004906 <__hexdig_fun+0x1a>
 8004902:	3847      	subs	r0, #71	; 0x47
 8004904:	e7f7      	b.n	80048f6 <__hexdig_fun+0xa>
 8004906:	f1a0 0341 	sub.w	r3, r0, #65	; 0x41
 800490a:	2b05      	cmp	r3, #5
 800490c:	d801      	bhi.n	8004912 <__hexdig_fun+0x26>
 800490e:	3827      	subs	r0, #39	; 0x27
 8004910:	e7f1      	b.n	80048f6 <__hexdig_fun+0xa>
 8004912:	2000      	movs	r0, #0
 8004914:	4770      	bx	lr

08004916 <__gethex>:
 8004916:	e92d 4ff0 	stmdb	sp!, {r4, r5, r6, r7, r8, r9, sl, fp, lr}
 800491a:	b08b      	sub	sp, #44	; 0x2c
 800491c:	468a      	mov	sl, r1
 800491e:	9002      	str	r0, [sp, #8]
 8004920:	9816      	ldr	r0, [sp, #88]	; 0x58
 8004922:	9306      	str	r3, [sp, #24]
 8004924:	4690      	mov	r8, r2
 8004926:	f000 facd 	bl	8004ec4 <__localeconv_l>
 800492a:	6803      	ldr	r3, [r0, #0]
 800492c:	9303      	str	r3, [sp, #12]
 800492e:	4618      	mov	r0, r3
 8004930:	f7fb fc4a 	bl	80001c8 <strlen>
 8004934:	9b03      	ldr	r3, [sp, #12]
 8004936:	9001      	str	r0, [sp, #4]
 8004938:	4403      	add	r3, r0
 800493a:	f04f 0b00 	mov.w	fp, #0
 800493e:	f813 3c01 	ldrb.w	r3, [r3, #-1]
 8004942:	9307      	str	r3, [sp, #28]
 8004944:	f8da 3000 	ldr.w	r3, [sl]
 8004948:	3302      	adds	r3, #2
 800494a:	461f      	mov	r7, r3
 800494c:	f813 0b01 	ldrb.w	r0, [r3], #1
 8004950:	2830      	cmp	r0, #48	; 0x30
 8004952:	d06c      	beq.n	8004a2e <__gethex+0x118>
 8004954:	f7ff ffca 	bl	80048ec <__hexdig_fun>
 8004958:	4604      	mov	r4, r0
 800495a:	2800      	cmp	r0, #0
 800495c:	d16a      	bne.n	8004a34 <__gethex+0x11e>
 800495e:	9a01      	ldr	r2, [sp, #4]
 8004960:	9903      	ldr	r1, [sp, #12]
 8004962:	4638      	mov	r0, r7
 8004964:	f000 ff44 	bl	80057f0 <strncmp>
 8004968:	2800      	cmp	r0, #0
 800496a:	d166      	bne.n	8004a3a <__gethex+0x124>
 800496c:	9b01      	ldr	r3, [sp, #4]
 800496e:	5cf8      	ldrb	r0, [r7, r3]
 8004970:	18fe      	adds	r6, r7, r3
 8004972:	f7ff ffbb 	bl	80048ec <__hexdig_fun>
 8004976:	2800      	cmp	r0, #0
 8004978:	d062      	beq.n	8004a40 <__gethex+0x12a>
 800497a:	4633      	mov	r3, r6
 800497c:	7818      	ldrb	r0, [r3, #0]
 800497e:	2830      	cmp	r0, #48	; 0x30
 8004980:	461f      	mov	r7, r3
 8004982:	f103 0301 	add.w	r3, r3, #1
 8004986:	d0f9      	beq.n	800497c <__gethex+0x66>
 8004988:	f7ff ffb0 	bl	80048ec <__hexdig_fun>
 800498c:	fab0 f580 	clz	r5, r0
 8004990:	096d      	lsrs	r5, r5, #5
 8004992:	4634      	mov	r4, r6
 8004994:	f04f 0b01 	mov.w	fp, #1
 8004998:	463a      	mov	r2, r7
 800499a:	4616      	mov	r6, r2
 800499c:	3201      	adds	r2, #1
 800499e:	7830      	ldrb	r0, [r6, #0]
 80049a0:	f7ff ffa4 	bl	80048ec <__hexdig_fun>
 80049a4:	2800      	cmp	r0, #0
 80049a6:	d1f8      	bne.n	800499a <__gethex+0x84>
 80049a8:	9a01      	ldr	r2, [sp, #4]
 80049aa:	9903      	ldr	r1, [sp, #12]
 80049ac:	4630      	mov	r0, r6
 80049ae:	f000 ff1f 	bl	80057f0 <strncmp>
 80049b2:	b950      	cbnz	r0, 80049ca <__gethex+0xb4>
 80049b4:	b954      	cbnz	r4, 80049cc <__gethex+0xb6>
 80049b6:	9b01      	ldr	r3, [sp, #4]
 80049b8:	18f4      	adds	r4, r6, r3
 80049ba:	4622      	mov	r2, r4
 80049bc:	4616      	mov	r6, r2
 80049be:	3201      	adds	r2, #1
 80049c0:	7830      	ldrb	r0, [r6, #0]
 80049c2:	f7ff ff93 	bl	80048ec <__hexdig_fun>
 80049c6:	2800      	cmp	r0, #0
 80049c8:	d1f8      	bne.n	80049bc <__gethex+0xa6>
 80049ca:	b10c      	cbz	r4, 80049d0 <__gethex+0xba>
 80049cc:	1ba4      	subs	r4, r4, r6
 80049ce:	00a4      	lsls	r4, r4, #2
 80049d0:	7833      	ldrb	r3, [r6, #0]
 80049d2:	2b50      	cmp	r3, #80	; 0x50
 80049d4:	d001      	beq.n	80049da <__gethex+0xc4>
 80049d6:	2b70      	cmp	r3, #112	; 0x70
 80049d8:	d140      	bne.n	8004a5c <__gethex+0x146>
 80049da:	7873      	ldrb	r3, [r6, #1]
 80049dc:	2b2b      	cmp	r3, #43	; 0x2b
 80049de:	d031      	beq.n	8004a44 <__gethex+0x12e>
 80049e0:	2b2d      	cmp	r3, #45	; 0x2d
 80049e2:	d033      	beq.n	8004a4c <__gethex+0x136>
 80049e4:	1c71      	adds	r1, r6, #1
 80049e6:	f04f 0900 	mov.w	r9, #0
 80049ea:	7808      	ldrb	r0, [r1, #0]
 80049ec:	f7ff ff7e 	bl	80048ec <__hexdig_fun>
 80049f0:	1e43      	subs	r3, r0, #1
 80049f2:	b2db      	uxtb	r3, r3
 80049f4:	2b18      	cmp	r3, #24
 80049f6:	d831      	bhi.n	8004a5c <__gethex+0x146>
 80049f8:	f1a0 0210 	sub.w	r2, r0, #16
 80049fc:	f811 0f01 	ldrb.w	r0, [r1, #1]!
 8004a00:	f7ff ff74 	bl	80048ec <__hexdig_fun>
 8004a04:	1e43      	subs	r3, r0, #1
 8004a06:	b2db      	uxtb	r3, r3
 8004a08:	2b18      	cmp	r3, #24
 8004a0a:	d922      	bls.n	8004a52 <__gethex+0x13c>
 8004a0c:	f1b9 0f00 	cmp.w	r9, #0
 8004a10:	d000      	beq.n	8004a14 <__gethex+0xfe>
 8004a12:	4252      	negs	r2, r2
 8004a14:	4414      	add	r4, r2
 8004a16:	f8ca 1000 	str.w	r1, [sl]
 8004a1a:	b30d      	cbz	r5, 8004a60 <__gethex+0x14a>
 8004a1c:	f1bb 0f00 	cmp.w	fp, #0
 8004a20:	bf0c      	ite	eq
 8004a22:	2706      	moveq	r7, #6
 8004a24:	2700      	movne	r7, #0
 8004a26:	4638      	mov	r0, r7
 8004a28:	b00b      	add	sp, #44	; 0x2c
 8004a2a:	e8bd 8ff0 	ldmia.w	sp!, {r4, r5, r6, r7, r8, r9, sl, fp, pc}
 8004a2e:	f10b 0b01 	add.w	fp, fp, #1
 8004a32:	e78a      	b.n	800494a <__gethex+0x34>
 8004a34:	2500      	movs	r5, #0
 8004a36:	462c      	mov	r4, r5
 8004a38:	e7ae      	b.n	8004998 <__gethex+0x82>
 8004a3a:	463e      	mov	r6, r7
 8004a3c:	2501      	movs	r5, #1
 8004a3e:	e7c7      	b.n	80049d0 <__gethex+0xba>
 8004a40:	4604      	mov	r4, r0
 8004a42:	e7fb      	b.n	8004a3c <__gethex+0x126>
 8004a44:	f04f 0900 	mov.w	r9, #0
 8004a48:	1cb1      	adds	r1, r6, #2
 8004a4a:	e7ce      	b.n	80049ea <__gethex+0xd4>
 8004a4c:	f04f 0901 	mov.w	r9, #1
 8004a50:	e7fa      	b.n	8004a48 <__gethex+0x132>
 8004a52:	230a      	movs	r3, #10
 8004a54:	fb03 0202 	mla	r2, r3, r2, r0
 8004a58:	3a10      	subs	r2, #16
 8004a5a:	e7cf      	b.n	80049fc <__gethex+0xe6>
 8004a5c:	4631      	mov	r1, r6
 8004a5e:	e7da      	b.n	8004a16 <__gethex+0x100>
 8004a60:	1bf3      	subs	r3, r6, r7
 8004a62:	3b01      	subs	r3, #1
 8004a64:	4629      	mov	r1, r5
 8004a66:	2b07      	cmp	r3, #7
 8004a68:	dc49      	bgt.n	8004afe <__gethex+0x1e8>
 8004a6a:	9802      	ldr	r0, [sp, #8]
 8004a6c:	f000 fa49 	bl	8004f02 <_Balloc>
 8004a70:	9b01      	ldr	r3, [sp, #4]
 8004a72:	f100 0914 	add.w	r9, r0, #20
 8004a76:	f04f 0b00 	mov.w	fp, #0
 8004a7a:	f1c3 0301 	rsb	r3, r3, #1
 8004a7e:	4605      	mov	r5, r0
 8004a80:	f8cd 9010 	str.w	r9, [sp, #16]
 8004a84:	46da      	mov	sl, fp
 8004a86:	9308      	str	r3, [sp, #32]
 8004a88:	42b7      	cmp	r7, r6
 8004a8a:	d33b      	bcc.n	8004b04 <__gethex+0x1ee>
 8004a8c:	9804      	ldr	r0, [sp, #16]
 8004a8e:	f840 ab04 	str.w	sl, [r0], #4
 8004a92:	eba0 0009 	sub.w	r0, r0, r9
 8004a96:	1080      	asrs	r0, r0, #2
 8004a98:	6128      	str	r0, [r5, #16]
 8004a9a:	0147      	lsls	r7, r0, #5
 8004a9c:	4650      	mov	r0, sl
 8004a9e:	f000 faf4 	bl	800508a <__hi0bits>
 8004aa2:	f8d8 6000 	ldr.w	r6, [r8]
 8004aa6:	1a3f      	subs	r7, r7, r0
 8004aa8:	42b7      	cmp	r7, r6
 8004aaa:	dd64      	ble.n	8004b76 <__gethex+0x260>
 8004aac:	1bbf      	subs	r7, r7, r6
 8004aae:	4639      	mov	r1, r7
 8004ab0:	4628      	mov	r0, r5
 8004ab2:	f000 fe03 	bl	80056bc <__any_on>
 8004ab6:	4682      	mov	sl, r0
 8004ab8:	b178      	cbz	r0, 8004ada <__gethex+0x1c4>
 8004aba:	1e7b      	subs	r3, r7, #1
 8004abc:	1159      	asrs	r1, r3, #5
 8004abe:	f003 021f 	and.w	r2, r3, #31
 8004ac2:	f04f 0a01 	mov.w	sl, #1
 8004ac6:	f859 1021 	ldr.w	r1, [r9, r1, lsl #2]
 8004aca:	fa0a f202 	lsl.w	r2, sl, r2
 8004ace:	420a      	tst	r2, r1
 8004ad0:	d003      	beq.n	8004ada <__gethex+0x1c4>
 8004ad2:	4553      	cmp	r3, sl
 8004ad4:	dc46      	bgt.n	8004b64 <__gethex+0x24e>
 8004ad6:	f04f 0a02 	mov.w	sl, #2
 8004ada:	4639      	mov	r1, r7
 8004adc:	4628      	mov	r0, r5
 8004ade:	f7ff fecb 	bl	8004878 <rshift>
 8004ae2:	443c      	add	r4, r7
 8004ae4:	f8d8 3008 	ldr.w	r3, [r8, #8]
 8004ae8:	42a3      	cmp	r3, r4
 8004aea:	da52      	bge.n	8004b92 <__gethex+0x27c>
 8004aec:	4629      	mov	r1, r5
 8004aee:	9802      	ldr	r0, [sp, #8]
 8004af0:	f000 fa3b 	bl	8004f6a <_Bfree>
 8004af4:	9a14      	ldr	r2, [sp, #80]	; 0x50
 8004af6:	2300      	movs	r3, #0
 8004af8:	6013      	str	r3, [r2, #0]
 8004afa:	27a3      	movs	r7, #163	; 0xa3
 8004afc:	e793      	b.n	8004a26 <__gethex+0x110>
 8004afe:	3101      	adds	r1, #1
 8004b00:	105b      	asrs	r3, r3, #1
 8004b02:	e7b0      	b.n	8004a66 <__gethex+0x150>
 8004b04:	1e73      	subs	r3, r6, #1
 8004b06:	9305      	str	r3, [sp, #20]
 8004b08:	9a07      	ldr	r2, [sp, #28]
 8004b0a:	f816 3c01 	ldrb.w	r3, [r6, #-1]
 8004b0e:	4293      	cmp	r3, r2
 8004b10:	d018      	beq.n	8004b44 <__gethex+0x22e>
 8004b12:	f1bb 0f20 	cmp.w	fp, #32
 8004b16:	d107      	bne.n	8004b28 <__gethex+0x212>
 8004b18:	9b04      	ldr	r3, [sp, #16]
 8004b1a:	f8c3 a000 	str.w	sl, [r3]
 8004b1e:	3304      	adds	r3, #4
 8004b20:	f04f 0a00 	mov.w	sl, #0
 8004b24:	9304      	str	r3, [sp, #16]
 8004b26:	46d3      	mov	fp, sl
 8004b28:	f816 0c01 	ldrb.w	r0, [r6, #-1]
 8004b2c:	f7ff fede 	bl	80048ec <__hexdig_fun>
 8004b30:	f000 000f 	and.w	r0, r0, #15
 8004b34:	fa00 f00b 	lsl.w	r0, r0, fp
 8004b38:	ea4a 0a00 	orr.w	sl, sl, r0
 8004b3c:	f10b 0b04 	add.w	fp, fp, #4
 8004b40:	9b05      	ldr	r3, [sp, #20]
 8004b42:	e00d      	b.n	8004b60 <__gethex+0x24a>
 8004b44:	9b05      	ldr	r3, [sp, #20]
 8004b46:	9a08      	ldr	r2, [sp, #32]
 8004b48:	4413      	add	r3, r2
 8004b4a:	42bb      	cmp	r3, r7
 8004b4c:	d3e1      	bcc.n	8004b12 <__gethex+0x1fc>
 8004b4e:	4618      	mov	r0, r3
 8004b50:	9a01      	ldr	r2, [sp, #4]
 8004b52:	9903      	ldr	r1, [sp, #12]
 8004b54:	9309      	str	r3, [sp, #36]	; 0x24
 8004b56:	f000 fe4b 	bl	80057f0 <strncmp>
 8004b5a:	9b09      	ldr	r3, [sp, #36]	; 0x24
 8004b5c:	2800      	cmp	r0, #0
 8004b5e:	d1d8      	bne.n	8004b12 <__gethex+0x1fc>
 8004b60:	461e      	mov	r6, r3
 8004b62:	e791      	b.n	8004a88 <__gethex+0x172>
 8004b64:	1eb9      	subs	r1, r7, #2
 8004b66:	4628      	mov	r0, r5
 8004b68:	f000 fda8 	bl	80056bc <__any_on>
 8004b6c:	2800      	cmp	r0, #0
 8004b6e:	d0b2      	beq.n	8004ad6 <__gethex+0x1c0>
 8004b70:	f04f 0a03 	mov.w	sl, #3
 8004b74:	e7b1      	b.n	8004ada <__gethex+0x1c4>
 8004b76:	da09      	bge.n	8004b8c <__gethex+0x276>
 8004b78:	1bf7      	subs	r7, r6, r7
 8004b7a:	4629      	mov	r1, r5
 8004b7c:	463a      	mov	r2, r7
 8004b7e:	9802      	ldr	r0, [sp, #8]
 8004b80:	f000 fbbe 	bl	8005300 <__lshift>
 8004b84:	1be4      	subs	r4, r4, r7
 8004b86:	4605      	mov	r5, r0
 8004b88:	f100 0914 	add.w	r9, r0, #20
 8004b8c:	f04f 0a00 	mov.w	sl, #0
 8004b90:	e7a8      	b.n	8004ae4 <__gethex+0x1ce>
 8004b92:	f8d8 0004 	ldr.w	r0, [r8, #4]
 8004b96:	42a0      	cmp	r0, r4
 8004b98:	dd6a      	ble.n	8004c70 <__gethex+0x35a>
 8004b9a:	1b04      	subs	r4, r0, r4
 8004b9c:	42a6      	cmp	r6, r4
 8004b9e:	dc2e      	bgt.n	8004bfe <__gethex+0x2e8>
 8004ba0:	f8d8 300c 	ldr.w	r3, [r8, #12]
 8004ba4:	2b02      	cmp	r3, #2
 8004ba6:	d022      	beq.n	8004bee <__gethex+0x2d8>
 8004ba8:	2b03      	cmp	r3, #3
 8004baa:	d024      	beq.n	8004bf6 <__gethex+0x2e0>
 8004bac:	2b01      	cmp	r3, #1
 8004bae:	d115      	bne.n	8004bdc <__gethex+0x2c6>
 8004bb0:	42a6      	cmp	r6, r4
 8004bb2:	d113      	bne.n	8004bdc <__gethex+0x2c6>
 8004bb4:	2e01      	cmp	r6, #1
 8004bb6:	dc0b      	bgt.n	8004bd0 <__gethex+0x2ba>
 8004bb8:	9a06      	ldr	r2, [sp, #24]
 8004bba:	f8d8 3004 	ldr.w	r3, [r8, #4]
 8004bbe:	6013      	str	r3, [r2, #0]
 8004bc0:	2301      	movs	r3, #1
 8004bc2:	612b      	str	r3, [r5, #16]
 8004bc4:	f8c9 3000 	str.w	r3, [r9]
 8004bc8:	9b14      	ldr	r3, [sp, #80]	; 0x50
 8004bca:	2762      	movs	r7, #98	; 0x62
 8004bcc:	601d      	str	r5, [r3, #0]
 8004bce:	e72a      	b.n	8004a26 <__gethex+0x110>
 8004bd0:	1e71      	subs	r1, r6, #1
 8004bd2:	4628      	mov	r0, r5
 8004bd4:	f000 fd72 	bl	80056bc <__any_on>
 8004bd8:	2800      	cmp	r0, #0
 8004bda:	d1ed      	bne.n	8004bb8 <__gethex+0x2a2>
 8004bdc:	4629      	mov	r1, r5
 8004bde:	9802      	ldr	r0, [sp, #8]
 8004be0:	f000 f9c3 	bl	8004f6a <_Bfree>
 8004be4:	9a14      	ldr	r2, [sp, #80]	; 0x50
 8004be6:	2300      	movs	r3, #0
 8004be8:	6013      	str	r3, [r2, #0]
 8004bea:	2750      	movs	r7, #80	; 0x50
 8004bec:	e71b      	b.n	8004a26 <__gethex+0x110>
 8004bee:	9b15      	ldr	r3, [sp, #84]	; 0x54
 8004bf0:	2b00      	cmp	r3, #0
 8004bf2:	d0e1      	beq.n	8004bb8 <__gethex+0x2a2>
 8004bf4:	e7f2      	b.n	8004bdc <__gethex+0x2c6>
 8004bf6:	9b15      	ldr	r3, [sp, #84]	; 0x54
 8004bf8:	2b00      	cmp	r3, #0
 8004bfa:	d1dd      	bne.n	8004bb8 <__gethex+0x2a2>
 8004bfc:	e7ee      	b.n	8004bdc <__gethex+0x2c6>
 8004bfe:	1e67      	subs	r7, r4, #1
 8004c00:	f1ba 0f00 	cmp.w	sl, #0
 8004c04:	d131      	bne.n	8004c6a <__gethex+0x354>
 8004c06:	b127      	cbz	r7, 8004c12 <__gethex+0x2fc>
 8004c08:	4639      	mov	r1, r7
 8004c0a:	4628      	mov	r0, r5
 8004c0c:	f000 fd56 	bl	80056bc <__any_on>
 8004c10:	4682      	mov	sl, r0
 8004c12:	117a      	asrs	r2, r7, #5
 8004c14:	2301      	movs	r3, #1
 8004c16:	f007 071f 	and.w	r7, r7, #31
 8004c1a:	fa03 f707 	lsl.w	r7, r3, r7
 8004c1e:	f859 3022 	ldr.w	r3, [r9, r2, lsl #2]
 8004c22:	4621      	mov	r1, r4
 8004c24:	421f      	tst	r7, r3
 8004c26:	4628      	mov	r0, r5
 8004c28:	bf18      	it	ne
 8004c2a:	f04a 0a02 	orrne.w	sl, sl, #2
 8004c2e:	1b36      	subs	r6, r6, r4
 8004c30:	f7ff fe22 	bl	8004878 <rshift>
 8004c34:	f8d8 4004 	ldr.w	r4, [r8, #4]
 8004c38:	2702      	movs	r7, #2
 8004c3a:	f1ba 0f00 	cmp.w	sl, #0
 8004c3e:	d048      	beq.n	8004cd2 <__gethex+0x3bc>
 8004c40:	f8d8 300c 	ldr.w	r3, [r8, #12]
 8004c44:	2b02      	cmp	r3, #2
 8004c46:	d015      	beq.n	8004c74 <__gethex+0x35e>
 8004c48:	2b03      	cmp	r3, #3
 8004c4a:	d017      	beq.n	8004c7c <__gethex+0x366>
 8004c4c:	2b01      	cmp	r3, #1
 8004c4e:	d109      	bne.n	8004c64 <__gethex+0x34e>
 8004c50:	f01a 0f02 	tst.w	sl, #2
 8004c54:	d006      	beq.n	8004c64 <__gethex+0x34e>
 8004c56:	f8d9 3000 	ldr.w	r3, [r9]
 8004c5a:	ea4a 0a03 	orr.w	sl, sl, r3
 8004c5e:	f01a 0f01 	tst.w	sl, #1
 8004c62:	d10e      	bne.n	8004c82 <__gethex+0x36c>
 8004c64:	f047 0710 	orr.w	r7, r7, #16
 8004c68:	e033      	b.n	8004cd2 <__gethex+0x3bc>
 8004c6a:	f04f 0a01 	mov.w	sl, #1
 8004c6e:	e7d0      	b.n	8004c12 <__gethex+0x2fc>
 8004c70:	2701      	movs	r7, #1
 8004c72:	e7e2      	b.n	8004c3a <__gethex+0x324>
 8004c74:	9b15      	ldr	r3, [sp, #84]	; 0x54
 8004c76:	f1c3 0301 	rsb	r3, r3, #1
 8004c7a:	9315      	str	r3, [sp, #84]	; 0x54
 8004c7c:	9b15      	ldr	r3, [sp, #84]	; 0x54
 8004c7e:	2b00      	cmp	r3, #0
 8004c80:	d0f0      	beq.n	8004c64 <__gethex+0x34e>
 8004c82:	f8d5 9010 	ldr.w	r9, [r5, #16]
 8004c86:	f105 0314 	add.w	r3, r5, #20
 8004c8a:	ea4f 0a89 	mov.w	sl, r9, lsl #2
 8004c8e:	eb03 010a 	add.w	r1, r3, sl
 8004c92:	f04f 0c00 	mov.w	ip, #0
 8004c96:	4618      	mov	r0, r3
 8004c98:	f853 2b04 	ldr.w	r2, [r3], #4
 8004c9c:	f1b2 3fff 	cmp.w	r2, #4294967295
 8004ca0:	d01c      	beq.n	8004cdc <__gethex+0x3c6>
 8004ca2:	3201      	adds	r2, #1
 8004ca4:	6002      	str	r2, [r0, #0]
 8004ca6:	2f02      	cmp	r7, #2
 8004ca8:	f105 0314 	add.w	r3, r5, #20
 8004cac:	d138      	bne.n	8004d20 <__gethex+0x40a>
 8004cae:	f8d8 2000 	ldr.w	r2, [r8]
 8004cb2:	3a01      	subs	r2, #1
 8004cb4:	42b2      	cmp	r2, r6
 8004cb6:	d10a      	bne.n	8004cce <__gethex+0x3b8>
 8004cb8:	1171      	asrs	r1, r6, #5
 8004cba:	2201      	movs	r2, #1
 8004cbc:	f006 061f 	and.w	r6, r6, #31
 8004cc0:	f853 3021 	ldr.w	r3, [r3, r1, lsl #2]
 8004cc4:	fa02 f606 	lsl.w	r6, r2, r6
 8004cc8:	421e      	tst	r6, r3
 8004cca:	bf18      	it	ne
 8004ccc:	4617      	movne	r7, r2
 8004cce:	f047 0720 	orr.w	r7, r7, #32
 8004cd2:	9b14      	ldr	r3, [sp, #80]	; 0x50
 8004cd4:	601d      	str	r5, [r3, #0]
 8004cd6:	9b06      	ldr	r3, [sp, #24]
 8004cd8:	601c      	str	r4, [r3, #0]
 8004cda:	e6a4      	b.n	8004a26 <__gethex+0x110>
 8004cdc:	4299      	cmp	r1, r3
 8004cde:	f843 cc04 	str.w	ip, [r3, #-4]
 8004ce2:	d8d8      	bhi.n	8004c96 <__gethex+0x380>
 8004ce4:	68ab      	ldr	r3, [r5, #8]
 8004ce6:	4599      	cmp	r9, r3
 8004ce8:	db12      	blt.n	8004d10 <__gethex+0x3fa>
 8004cea:	6869      	ldr	r1, [r5, #4]
 8004cec:	9802      	ldr	r0, [sp, #8]
 8004cee:	3101      	adds	r1, #1
 8004cf0:	f000 f907 	bl	8004f02 <_Balloc>
 8004cf4:	692a      	ldr	r2, [r5, #16]
 8004cf6:	3202      	adds	r2, #2
 8004cf8:	f105 010c 	add.w	r1, r5, #12
 8004cfc:	4683      	mov	fp, r0
 8004cfe:	0092      	lsls	r2, r2, #2
 8004d00:	300c      	adds	r0, #12
 8004d02:	f000 f8f3 	bl	8004eec <memcpy>
 8004d06:	4629      	mov	r1, r5
 8004d08:	9802      	ldr	r0, [sp, #8]
 8004d0a:	f000 f92e 	bl	8004f6a <_Bfree>
 8004d0e:	465d      	mov	r5, fp
 8004d10:	692b      	ldr	r3, [r5, #16]
 8004d12:	1c5a      	adds	r2, r3, #1
 8004d14:	eb05 0383 	add.w	r3, r5, r3, lsl #2
 8004d18:	612a      	str	r2, [r5, #16]
 8004d1a:	2201      	movs	r2, #1
 8004d1c:	615a      	str	r2, [r3, #20]
 8004d1e:	e7c2      	b.n	8004ca6 <__gethex+0x390>
 8004d20:	692a      	ldr	r2, [r5, #16]
 8004d22:	454a      	cmp	r2, r9
 8004d24:	dd0b      	ble.n	8004d3e <__gethex+0x428>
 8004d26:	2101      	movs	r1, #1
 8004d28:	4628      	mov	r0, r5
 8004d2a:	f7ff fda5 	bl	8004878 <rshift>
 8004d2e:	f8d8 3008 	ldr.w	r3, [r8, #8]
 8004d32:	3401      	adds	r4, #1
 8004d34:	42a3      	cmp	r3, r4
 8004d36:	f6ff aed9 	blt.w	8004aec <__gethex+0x1d6>
 8004d3a:	2701      	movs	r7, #1
 8004d3c:	e7c7      	b.n	8004cce <__gethex+0x3b8>
 8004d3e:	f016 061f 	ands.w	r6, r6, #31
 8004d42:	d0fa      	beq.n	8004d3a <__gethex+0x424>
 8004d44:	449a      	add	sl, r3
 8004d46:	f1c6 0620 	rsb	r6, r6, #32
 8004d4a:	f85a 0c04 	ldr.w	r0, [sl, #-4]
 8004d4e:	f000 f99c 	bl	800508a <__hi0bits>
 8004d52:	42b0      	cmp	r0, r6
 8004d54:	dbe7      	blt.n	8004d26 <__gethex+0x410>
 8004d56:	e7f0      	b.n	8004d3a <__gethex+0x424>

08004d58 <L_shift>:
 8004d58:	f1c2 0208 	rsb	r2, r2, #8
 8004d5c:	0092      	lsls	r2, r2, #2
 8004d5e:	b570      	push	{r4, r5, r6, lr}
 8004d60:	f1c2 0620 	rsb	r6, r2, #32
 8004d64:	6843      	ldr	r3, [r0, #4]
 8004d66:	6804      	ldr	r4, [r0, #0]
 8004d68:	fa03 f506 	lsl.w	r5, r3, r6
 8004d6c:	432c      	orrs	r4, r5
 8004d6e:	40d3      	lsrs	r3, r2
 8004d70:	6004      	str	r4, [r0, #0]
 8004d72:	f840 3f04 	str.w	r3, [r0, #4]!
 8004d76:	4288      	cmp	r0, r1
 8004d78:	d3f4      	bcc.n	8004d64 <L_shift+0xc>
 8004d7a:	bd70      	pop	{r4, r5, r6, pc}

08004d7c <__match>:
 8004d7c:	b530      	push	{r4, r5, lr}
 8004d7e:	6803      	ldr	r3, [r0, #0]
 8004d80:	3301      	adds	r3, #1
 8004d82:	f811 4b01 	ldrb.w	r4, [r1], #1
 8004d86:	b914      	cbnz	r4, 8004d8e <__match+0x12>
 8004d88:	6003      	str	r3, [r0, #0]
 8004d8a:	2001      	movs	r0, #1
 8004d8c:	bd30      	pop	{r4, r5, pc}
 8004d8e:	f813 2b01 	ldrb.w	r2, [r3], #1
 8004d92:	f1a2 0541 	sub.w	r5, r2, #65	; 0x41
 8004d96:	2d19      	cmp	r5, #25
 8004d98:	bf98      	it	ls
 8004d9a:	3220      	addls	r2, #32
 8004d9c:	42a2      	cmp	r2, r4
 8004d9e:	d0f0      	beq.n	8004d82 <__match+0x6>
 8004da0:	2000      	movs	r0, #0
 8004da2:	e7f3      	b.n	8004d8c <__match+0x10>

08004da4 <__hexnan>:
 8004da4:	e92d 4ff0 	stmdb	sp!, {r4, r5, r6, r7, r8, r9, sl, fp, lr}
 8004da8:	680b      	ldr	r3, [r1, #0]
 8004daa:	6801      	ldr	r1, [r0, #0]
 8004dac:	115f      	asrs	r7, r3, #5
 8004dae:	eb02 0787 	add.w	r7, r2, r7, lsl #2
 8004db2:	f013 031f 	ands.w	r3, r3, #31
 8004db6:	b087      	sub	sp, #28
 8004db8:	bf18      	it	ne
 8004dba:	3704      	addne	r7, #4
 8004dbc:	2500      	movs	r5, #0
 8004dbe:	1f3e      	subs	r6, r7, #4
 8004dc0:	4682      	mov	sl, r0
 8004dc2:	4690      	mov	r8, r2
 8004dc4:	9301      	str	r3, [sp, #4]
 8004dc6:	f847 5c04 	str.w	r5, [r7, #-4]
 8004dca:	46b1      	mov	r9, r6
 8004dcc:	4634      	mov	r4, r6
 8004dce:	9502      	str	r5, [sp, #8]
 8004dd0:	46ab      	mov	fp, r5
 8004dd2:	784a      	ldrb	r2, [r1, #1]
 8004dd4:	1c4b      	adds	r3, r1, #1
 8004dd6:	9303      	str	r3, [sp, #12]
 8004dd8:	b342      	cbz	r2, 8004e2c <__hexnan+0x88>
 8004dda:	4610      	mov	r0, r2
 8004ddc:	9105      	str	r1, [sp, #20]
 8004dde:	9204      	str	r2, [sp, #16]
 8004de0:	f7ff fd84 	bl	80048ec <__hexdig_fun>
 8004de4:	2800      	cmp	r0, #0
 8004de6:	d143      	bne.n	8004e70 <__hexnan+0xcc>
 8004de8:	9a04      	ldr	r2, [sp, #16]
 8004dea:	9905      	ldr	r1, [sp, #20]
 8004dec:	2a20      	cmp	r2, #32
 8004dee:	d818      	bhi.n	8004e22 <__hexnan+0x7e>
 8004df0:	9b02      	ldr	r3, [sp, #8]
 8004df2:	459b      	cmp	fp, r3
 8004df4:	dd13      	ble.n	8004e1e <__hexnan+0x7a>
 8004df6:	454c      	cmp	r4, r9
 8004df8:	d206      	bcs.n	8004e08 <__hexnan+0x64>
 8004dfa:	2d07      	cmp	r5, #7
 8004dfc:	dc04      	bgt.n	8004e08 <__hexnan+0x64>
 8004dfe:	462a      	mov	r2, r5
 8004e00:	4649      	mov	r1, r9
 8004e02:	4620      	mov	r0, r4
 8004e04:	f7ff ffa8 	bl	8004d58 <L_shift>
 8004e08:	4544      	cmp	r4, r8
 8004e0a:	d944      	bls.n	8004e96 <__hexnan+0xf2>
 8004e0c:	2300      	movs	r3, #0
 8004e0e:	f1a4 0904 	sub.w	r9, r4, #4
 8004e12:	f844 3c04 	str.w	r3, [r4, #-4]
 8004e16:	f8cd b008 	str.w	fp, [sp, #8]
 8004e1a:	464c      	mov	r4, r9
 8004e1c:	461d      	mov	r5, r3
 8004e1e:	9903      	ldr	r1, [sp, #12]
 8004e20:	e7d7      	b.n	8004dd2 <__hexnan+0x2e>
 8004e22:	2a29      	cmp	r2, #41	; 0x29
 8004e24:	d14a      	bne.n	8004ebc <__hexnan+0x118>
 8004e26:	3102      	adds	r1, #2
 8004e28:	f8ca 1000 	str.w	r1, [sl]
 8004e2c:	f1bb 0f00 	cmp.w	fp, #0
 8004e30:	d044      	beq.n	8004ebc <__hexnan+0x118>
 8004e32:	454c      	cmp	r4, r9
 8004e34:	d206      	bcs.n	8004e44 <__hexnan+0xa0>
 8004e36:	2d07      	cmp	r5, #7
 8004e38:	dc04      	bgt.n	8004e44 <__hexnan+0xa0>
 8004e3a:	462a      	mov	r2, r5
 8004e3c:	4649      	mov	r1, r9
 8004e3e:	4620      	mov	r0, r4
 8004e40:	f7ff ff8a 	bl	8004d58 <L_shift>
 8004e44:	4544      	cmp	r4, r8
 8004e46:	d928      	bls.n	8004e9a <__hexnan+0xf6>
 8004e48:	4643      	mov	r3, r8
 8004e4a:	f854 2b04 	ldr.w	r2, [r4], #4
 8004e4e:	f843 2b04 	str.w	r2, [r3], #4
 8004e52:	42a6      	cmp	r6, r4
 8004e54:	d2f9      	bcs.n	8004e4a <__hexnan+0xa6>
 8004e56:	2200      	movs	r2, #0
 8004e58:	f843 2b04 	str.w	r2, [r3], #4
 8004e5c:	429e      	cmp	r6, r3
 8004e5e:	d2fb      	bcs.n	8004e58 <__hexnan+0xb4>
 8004e60:	6833      	ldr	r3, [r6, #0]
 8004e62:	b91b      	cbnz	r3, 8004e6c <__hexnan+0xc8>
 8004e64:	4546      	cmp	r6, r8
 8004e66:	d127      	bne.n	8004eb8 <__hexnan+0x114>
 8004e68:	2301      	movs	r3, #1
 8004e6a:	6033      	str	r3, [r6, #0]
 8004e6c:	2005      	movs	r0, #5
 8004e6e:	e026      	b.n	8004ebe <__hexnan+0x11a>
 8004e70:	3501      	adds	r5, #1
 8004e72:	2d08      	cmp	r5, #8
 8004e74:	f10b 0b01 	add.w	fp, fp, #1
 8004e78:	dd06      	ble.n	8004e88 <__hexnan+0xe4>
 8004e7a:	4544      	cmp	r4, r8
 8004e7c:	d9cf      	bls.n	8004e1e <__hexnan+0x7a>
 8004e7e:	2300      	movs	r3, #0
 8004e80:	f844 3c04 	str.w	r3, [r4, #-4]
 8004e84:	2501      	movs	r5, #1
 8004e86:	3c04      	subs	r4, #4
 8004e88:	6822      	ldr	r2, [r4, #0]
 8004e8a:	f000 000f 	and.w	r0, r0, #15
 8004e8e:	ea40 1002 	orr.w	r0, r0, r2, lsl #4
 8004e92:	6020      	str	r0, [r4, #0]
 8004e94:	e7c3      	b.n	8004e1e <__hexnan+0x7a>
 8004e96:	2508      	movs	r5, #8
 8004e98:	e7c1      	b.n	8004e1e <__hexnan+0x7a>
 8004e9a:	9b01      	ldr	r3, [sp, #4]
 8004e9c:	2b00      	cmp	r3, #0
 8004e9e:	d0df      	beq.n	8004e60 <__hexnan+0xbc>
 8004ea0:	f04f 32ff 	mov.w	r2, #4294967295
 8004ea4:	f1c3 0320 	rsb	r3, r3, #32
 8004ea8:	fa22 f303 	lsr.w	r3, r2, r3
 8004eac:	f857 2c04 	ldr.w	r2, [r7, #-4]
 8004eb0:	401a      	ands	r2, r3
 8004eb2:	f847 2c04 	str.w	r2, [r7, #-4]
 8004eb6:	e7d3      	b.n	8004e60 <__hexnan+0xbc>
 8004eb8:	3e04      	subs	r6, #4
 8004eba:	e7d1      	b.n	8004e60 <__hexnan+0xbc>
 8004ebc:	2004      	movs	r0, #4
 8004ebe:	b007      	add	sp, #28
 8004ec0:	e8bd 8ff0 	ldmia.w	sp!, {r4, r5, r6, r7, r8, r9, sl, fp, pc}

08004ec4 <__localeconv_l>:
 8004ec4:	30f0      	adds	r0, #240	; 0xf0
 8004ec6:	4770      	bx	lr

08004ec8 <__ascii_mbtowc>:
 8004ec8:	b082      	sub	sp, #8
 8004eca:	b901      	cbnz	r1, 8004ece <__ascii_mbtowc+0x6>
 8004ecc:	a901      	add	r1, sp, #4
 8004ece:	b142      	cbz	r2, 8004ee2 <__ascii_mbtowc+0x1a>
 8004ed0:	b14b      	cbz	r3, 8004ee6 <__ascii_mbtowc+0x1e>
 8004ed2:	7813      	ldrb	r3, [r2, #0]
 8004ed4:	600b      	str	r3, [r1, #0]
 8004ed6:	7812      	ldrb	r2, [r2, #0]
 8004ed8:	1c10      	adds	r0, r2, #0
 8004eda:	bf18      	it	ne
 8004edc:	2001      	movne	r0, #1
 8004ede:	b002      	add	sp, #8
 8004ee0:	4770      	bx	lr
 8004ee2:	4610      	mov	r0, r2
 8004ee4:	e7fb      	b.n	8004ede <__ascii_mbtowc+0x16>
 8004ee6:	f06f 0001 	mvn.w	r0, #1
 8004eea:	e7f8      	b.n	8004ede <__ascii_mbtowc+0x16>

08004eec <memcpy>:
 8004eec:	b510      	push	{r4, lr}
 8004eee:	1e43      	subs	r3, r0, #1
 8004ef0:	440a      	add	r2, r1
 8004ef2:	4291      	cmp	r1, r2
 8004ef4:	d100      	bne.n	8004ef8 <memcpy+0xc>
 8004ef6:	bd10      	pop	{r4, pc}
 8004ef8:	f811 4b01 	ldrb.w	r4, [r1], #1
 8004efc:	f803 4f01 	strb.w	r4, [r3, #1]!
 8004f00:	e7f7      	b.n	8004ef2 <memcpy+0x6>

08004f02 <_Balloc>:
 8004f02:	b570      	push	{r4, r5, r6, lr}
 8004f04:	6a45      	ldr	r5, [r0, #36]	; 0x24
 8004f06:	4604      	mov	r4, r0
 8004f08:	460e      	mov	r6, r1
 8004f0a:	b93d      	cbnz	r5, 8004f1c <_Balloc+0x1a>
 8004f0c:	2010      	movs	r0, #16
 8004f0e:	f000 fc8f 	bl	8005830 <malloc>
 8004f12:	6260      	str	r0, [r4, #36]	; 0x24
 8004f14:	e9c0 5501 	strd	r5, r5, [r0, #4]
 8004f18:	6005      	str	r5, [r0, #0]
 8004f1a:	60c5      	str	r5, [r0, #12]
 8004f1c:	6a65      	ldr	r5, [r4, #36]	; 0x24
 8004f1e:	68eb      	ldr	r3, [r5, #12]
 8004f20:	b183      	cbz	r3, 8004f44 <_Balloc+0x42>
 8004f22:	6a63      	ldr	r3, [r4, #36]	; 0x24
 8004f24:	68db      	ldr	r3, [r3, #12]
 8004f26:	f853 0026 	ldr.w	r0, [r3, r6, lsl #2]
 8004f2a:	b9b8      	cbnz	r0, 8004f5c <_Balloc+0x5a>
 8004f2c:	2101      	movs	r1, #1
 8004f2e:	fa01 f506 	lsl.w	r5, r1, r6
 8004f32:	1d6a      	adds	r2, r5, #5
 8004f34:	0092      	lsls	r2, r2, #2
 8004f36:	4620      	mov	r0, r4
 8004f38:	f000 fbe1 	bl	80056fe <_calloc_r>
 8004f3c:	b160      	cbz	r0, 8004f58 <_Balloc+0x56>
 8004f3e:	e9c0 6501 	strd	r6, r5, [r0, #4]
 8004f42:	e00e      	b.n	8004f62 <_Balloc+0x60>
 8004f44:	2221      	movs	r2, #33	; 0x21
 8004f46:	2104      	movs	r1, #4
 8004f48:	4620      	mov	r0, r4
 8004f4a:	f000 fbd8 	bl	80056fe <_calloc_r>
 8004f4e:	6a63      	ldr	r3, [r4, #36]	; 0x24
 8004f50:	60e8      	str	r0, [r5, #12]
 8004f52:	68db      	ldr	r3, [r3, #12]
 8004f54:	2b00      	cmp	r3, #0
 8004f56:	d1e4      	bne.n	8004f22 <_Balloc+0x20>
 8004f58:	2000      	movs	r0, #0
 8004f5a:	bd70      	pop	{r4, r5, r6, pc}
 8004f5c:	6802      	ldr	r2, [r0, #0]
 8004f5e:	f843 2026 	str.w	r2, [r3, r6, lsl #2]
 8004f62:	2300      	movs	r3, #0
 8004f64:	e9c0 3303 	strd	r3, r3, [r0, #12]
 8004f68:	e7f7      	b.n	8004f5a <_Balloc+0x58>

08004f6a <_Bfree>:
 8004f6a:	b570      	push	{r4, r5, r6, lr}
 8004f6c:	6a44      	ldr	r4, [r0, #36]	; 0x24
 8004f6e:	4606      	mov	r6, r0
 8004f70:	460d      	mov	r5, r1
 8004f72:	b93c      	cbnz	r4, 8004f84 <_Bfree+0x1a>
 8004f74:	2010      	movs	r0, #16
 8004f76:	f000 fc5b 	bl	8005830 <malloc>
 8004f7a:	6270      	str	r0, [r6, #36]	; 0x24
 8004f7c:	e9c0 4401 	strd	r4, r4, [r0, #4]
 8004f80:	6004      	str	r4, [r0, #0]
 8004f82:	60c4      	str	r4, [r0, #12]
 8004f84:	b13d      	cbz	r5, 8004f96 <_Bfree+0x2c>
 8004f86:	6a73      	ldr	r3, [r6, #36]	; 0x24
 8004f88:	686a      	ldr	r2, [r5, #4]
 8004f8a:	68db      	ldr	r3, [r3, #12]
 8004f8c:	f853 1022 	ldr.w	r1, [r3, r2, lsl #2]
 8004f90:	6029      	str	r1, [r5, #0]
 8004f92:	f843 5022 	str.w	r5, [r3, r2, lsl #2]
 8004f96:	bd70      	pop	{r4, r5, r6, pc}

08004f98 <__multadd>:
 8004f98:	e92d 41f0 	stmdb	sp!, {r4, r5, r6, r7, r8, lr}
 8004f9c:	690d      	ldr	r5, [r1, #16]
 8004f9e:	461f      	mov	r7, r3
 8004fa0:	4606      	mov	r6, r0
 8004fa2:	460c      	mov	r4, r1
 8004fa4:	f101 0c14 	add.w	ip, r1, #20
 8004fa8:	2300      	movs	r3, #0
 8004faa:	f8dc 0000 	ldr.w	r0, [ip]
 8004fae:	b281      	uxth	r1, r0
 8004fb0:	fb02 7101 	mla	r1, r2, r1, r7
 8004fb4:	0c0f      	lsrs	r7, r1, #16
 8004fb6:	0c00      	lsrs	r0, r0, #16
 8004fb8:	fb02 7000 	mla	r0, r2, r0, r7
 8004fbc:	b289      	uxth	r1, r1
 8004fbe:	3301      	adds	r3, #1
 8004fc0:	eb01 4100 	add.w	r1, r1, r0, lsl #16
 8004fc4:	429d      	cmp	r5, r3
 8004fc6:	ea4f 4710 	mov.w	r7, r0, lsr #16
 8004fca:	f84c 1b04 	str.w	r1, [ip], #4
 8004fce:	dcec      	bgt.n	8004faa <__multadd+0x12>
 8004fd0:	b1d7      	cbz	r7, 8005008 <__multadd+0x70>
 8004fd2:	68a3      	ldr	r3, [r4, #8]
 8004fd4:	42ab      	cmp	r3, r5
 8004fd6:	dc12      	bgt.n	8004ffe <__multadd+0x66>
 8004fd8:	6861      	ldr	r1, [r4, #4]
 8004fda:	4630      	mov	r0, r6
 8004fdc:	3101      	adds	r1, #1
 8004fde:	f7ff ff90 	bl	8004f02 <_Balloc>
 8004fe2:	6922      	ldr	r2, [r4, #16]
 8004fe4:	3202      	adds	r2, #2
 8004fe6:	f104 010c 	add.w	r1, r4, #12
 8004fea:	4680      	mov	r8, r0
 8004fec:	0092      	lsls	r2, r2, #2
 8004fee:	300c      	adds	r0, #12
 8004ff0:	f7ff ff7c 	bl	8004eec <memcpy>
 8004ff4:	4621      	mov	r1, r4
 8004ff6:	4630      	mov	r0, r6
 8004ff8:	f7ff ffb7 	bl	8004f6a <_Bfree>
 8004ffc:	4644      	mov	r4, r8
 8004ffe:	eb04 0385 	add.w	r3, r4, r5, lsl #2
 8005002:	3501      	adds	r5, #1
 8005004:	615f      	str	r7, [r3, #20]
 8005006:	6125      	str	r5, [r4, #16]
 8005008:	4620      	mov	r0, r4
 800500a:	e8bd 81f0 	ldmia.w	sp!, {r4, r5, r6, r7, r8, pc}

0800500e <__s2b>:
 800500e:	e92d 43f8 	stmdb	sp!, {r3, r4, r5, r6, r7, r8, r9, lr}
 8005012:	460c      	mov	r4, r1
 8005014:	4615      	mov	r5, r2
 8005016:	461f      	mov	r7, r3
 8005018:	2209      	movs	r2, #9
 800501a:	3308      	adds	r3, #8
 800501c:	4606      	mov	r6, r0
 800501e:	fb93 f3f2 	sdiv	r3, r3, r2
 8005022:	2100      	movs	r1, #0
 8005024:	2201      	movs	r2, #1
 8005026:	429a      	cmp	r2, r3
 8005028:	db20      	blt.n	800506c <__s2b+0x5e>
 800502a:	4630      	mov	r0, r6
 800502c:	f7ff ff69 	bl	8004f02 <_Balloc>
 8005030:	9b08      	ldr	r3, [sp, #32]
 8005032:	6143      	str	r3, [r0, #20]
 8005034:	2d09      	cmp	r5, #9
 8005036:	f04f 0301 	mov.w	r3, #1
 800503a:	6103      	str	r3, [r0, #16]
 800503c:	dd19      	ble.n	8005072 <__s2b+0x64>
 800503e:	f104 0809 	add.w	r8, r4, #9
 8005042:	46c1      	mov	r9, r8
 8005044:	442c      	add	r4, r5
 8005046:	f819 3b01 	ldrb.w	r3, [r9], #1
 800504a:	4601      	mov	r1, r0
 800504c:	3b30      	subs	r3, #48	; 0x30
 800504e:	220a      	movs	r2, #10
 8005050:	4630      	mov	r0, r6
 8005052:	f7ff ffa1 	bl	8004f98 <__multadd>
 8005056:	45a1      	cmp	r9, r4
 8005058:	d1f5      	bne.n	8005046 <__s2b+0x38>
 800505a:	eb08 0405 	add.w	r4, r8, r5
 800505e:	3c08      	subs	r4, #8
 8005060:	1b2d      	subs	r5, r5, r4
 8005062:	1963      	adds	r3, r4, r5
 8005064:	42bb      	cmp	r3, r7
 8005066:	db07      	blt.n	8005078 <__s2b+0x6a>
 8005068:	e8bd 83f8 	ldmia.w	sp!, {r3, r4, r5, r6, r7, r8, r9, pc}
 800506c:	0052      	lsls	r2, r2, #1
 800506e:	3101      	adds	r1, #1
 8005070:	e7d9      	b.n	8005026 <__s2b+0x18>
 8005072:	340a      	adds	r4, #10
 8005074:	2509      	movs	r5, #9
 8005076:	e7f3      	b.n	8005060 <__s2b+0x52>
 8005078:	f814 3b01 	ldrb.w	r3, [r4], #1
 800507c:	4601      	mov	r1, r0
 800507e:	3b30      	subs	r3, #48	; 0x30
 8005080:	220a      	movs	r2, #10
 8005082:	4630      	mov	r0, r6
 8005084:	f7ff ff88 	bl	8004f98 <__multadd>
 8005088:	e7eb      	b.n	8005062 <__s2b+0x54>

0800508a <__hi0bits>:
 800508a:	0c02      	lsrs	r2, r0, #16
 800508c:	0412      	lsls	r2, r2, #16
 800508e:	4603      	mov	r3, r0
 8005090:	b9b2      	cbnz	r2, 80050c0 <__hi0bits+0x36>
 8005092:	0403      	lsls	r3, r0, #16
 8005094:	2010      	movs	r0, #16
 8005096:	f013 4f7f 	tst.w	r3, #4278190080	; 0xff000000
 800509a:	bf04      	itt	eq
 800509c:	021b      	lsleq	r3, r3, #8
 800509e:	3008      	addeq	r0, #8
 80050a0:	f013 4f70 	tst.w	r3, #4026531840	; 0xf0000000
 80050a4:	bf04      	itt	eq
 80050a6:	011b      	lsleq	r3, r3, #4
 80050a8:	3004      	addeq	r0, #4
 80050aa:	f013 4f40 	tst.w	r3, #3221225472	; 0xc0000000
 80050ae:	bf04      	itt	eq
 80050b0:	009b      	lsleq	r3, r3, #2
 80050b2:	3002      	addeq	r0, #2
 80050b4:	2b00      	cmp	r3, #0
 80050b6:	db06      	blt.n	80050c6 <__hi0bits+0x3c>
 80050b8:	005b      	lsls	r3, r3, #1
 80050ba:	d503      	bpl.n	80050c4 <__hi0bits+0x3a>
 80050bc:	3001      	adds	r0, #1
 80050be:	4770      	bx	lr
 80050c0:	2000      	movs	r0, #0
 80050c2:	e7e8      	b.n	8005096 <__hi0bits+0xc>
 80050c4:	2020      	movs	r0, #32
 80050c6:	4770      	bx	lr

080050c8 <__lo0bits>:
 80050c8:	6803      	ldr	r3, [r0, #0]
 80050ca:	f013 0207 	ands.w	r2, r3, #7
 80050ce:	4601      	mov	r1, r0
 80050d0:	d00b      	beq.n	80050ea <__lo0bits+0x22>
 80050d2:	07da      	lsls	r2, r3, #31
 80050d4:	d423      	bmi.n	800511e <__lo0bits+0x56>
 80050d6:	0798      	lsls	r0, r3, #30
 80050d8:	bf49      	itett	mi
 80050da:	085b      	lsrmi	r3, r3, #1
 80050dc:	089b      	lsrpl	r3, r3, #2
 80050de:	2001      	movmi	r0, #1
 80050e0:	600b      	strmi	r3, [r1, #0]
 80050e2:	bf5c      	itt	pl
 80050e4:	600b      	strpl	r3, [r1, #0]
 80050e6:	2002      	movpl	r0, #2
 80050e8:	4770      	bx	lr
 80050ea:	b298      	uxth	r0, r3
 80050ec:	b9a8      	cbnz	r0, 800511a <__lo0bits+0x52>
 80050ee:	0c1b      	lsrs	r3, r3, #16
 80050f0:	2010      	movs	r0, #16
 80050f2:	f013 0fff 	tst.w	r3, #255	; 0xff
 80050f6:	bf04      	itt	eq
 80050f8:	0a1b      	lsreq	r3, r3, #8
 80050fa:	3008      	addeq	r0, #8
 80050fc:	071a      	lsls	r2, r3, #28
 80050fe:	bf04      	itt	eq
 8005100:	091b      	lsreq	r3, r3, #4
 8005102:	3004      	addeq	r0, #4
 8005104:	079a      	lsls	r2, r3, #30
 8005106:	bf04      	itt	eq
 8005108:	089b      	lsreq	r3, r3, #2
 800510a:	3002      	addeq	r0, #2
 800510c:	07da      	lsls	r2, r3, #31
 800510e:	d402      	bmi.n	8005116 <__lo0bits+0x4e>
 8005110:	085b      	lsrs	r3, r3, #1
 8005112:	d006      	beq.n	8005122 <__lo0bits+0x5a>
 8005114:	3001      	adds	r0, #1
 8005116:	600b      	str	r3, [r1, #0]
 8005118:	4770      	bx	lr
 800511a:	4610      	mov	r0, r2
 800511c:	e7e9      	b.n	80050f2 <__lo0bits+0x2a>
 800511e:	2000      	movs	r0, #0
 8005120:	4770      	bx	lr
 8005122:	2020      	movs	r0, #32
 8005124:	4770      	bx	lr

08005126 <__i2b>:
 8005126:	b510      	push	{r4, lr}
 8005128:	460c      	mov	r4, r1
 800512a:	2101      	movs	r1, #1
 800512c:	f7ff fee9 	bl	8004f02 <_Balloc>
 8005130:	2201      	movs	r2, #1
 8005132:	6144      	str	r4, [r0, #20]
 8005134:	6102      	str	r2, [r0, #16]
 8005136:	bd10      	pop	{r4, pc}

08005138 <__multiply>:
 8005138:	e92d 4ff7 	stmdb	sp!, {r0, r1, r2, r4, r5, r6, r7, r8, r9, sl, fp, lr}
 800513c:	4614      	mov	r4, r2
 800513e:	690a      	ldr	r2, [r1, #16]
 8005140:	6923      	ldr	r3, [r4, #16]
 8005142:	429a      	cmp	r2, r3
 8005144:	bfb8      	it	lt
 8005146:	460b      	movlt	r3, r1
 8005148:	4688      	mov	r8, r1
 800514a:	bfbc      	itt	lt
 800514c:	46a0      	movlt	r8, r4
 800514e:	461c      	movlt	r4, r3
 8005150:	f8d8 7010 	ldr.w	r7, [r8, #16]
 8005154:	f8d4 9010 	ldr.w	r9, [r4, #16]
 8005158:	f8d8 3008 	ldr.w	r3, [r8, #8]
 800515c:	f8d8 1004 	ldr.w	r1, [r8, #4]
 8005160:	eb07 0609 	add.w	r6, r7, r9
 8005164:	42b3      	cmp	r3, r6
 8005166:	bfb8      	it	lt
 8005168:	3101      	addlt	r1, #1
 800516a:	f7ff feca 	bl	8004f02 <_Balloc>
 800516e:	f100 0514 	add.w	r5, r0, #20
 8005172:	eb05 0e86 	add.w	lr, r5, r6, lsl #2
 8005176:	462b      	mov	r3, r5
 8005178:	2200      	movs	r2, #0
 800517a:	4573      	cmp	r3, lr
 800517c:	d316      	bcc.n	80051ac <__multiply+0x74>
 800517e:	f104 0214 	add.w	r2, r4, #20
 8005182:	f108 0114 	add.w	r1, r8, #20
 8005186:	eb02 0389 	add.w	r3, r2, r9, lsl #2
 800518a:	eb01 0787 	add.w	r7, r1, r7, lsl #2
 800518e:	9300      	str	r3, [sp, #0]
 8005190:	9b00      	ldr	r3, [sp, #0]
 8005192:	9201      	str	r2, [sp, #4]
 8005194:	4293      	cmp	r3, r2
 8005196:	d80c      	bhi.n	80051b2 <__multiply+0x7a>
 8005198:	2e00      	cmp	r6, #0
 800519a:	dd03      	ble.n	80051a4 <__multiply+0x6c>
 800519c:	f85e 3d04 	ldr.w	r3, [lr, #-4]!
 80051a0:	2b00      	cmp	r3, #0
 80051a2:	d05d      	beq.n	8005260 <__multiply+0x128>
 80051a4:	6106      	str	r6, [r0, #16]
 80051a6:	b003      	add	sp, #12
 80051a8:	e8bd 8ff0 	ldmia.w	sp!, {r4, r5, r6, r7, r8, r9, sl, fp, pc}
 80051ac:	f843 2b04 	str.w	r2, [r3], #4
 80051b0:	e7e3      	b.n	800517a <__multiply+0x42>
 80051b2:	f8b2 b000 	ldrh.w	fp, [r2]
 80051b6:	f1bb 0f00 	cmp.w	fp, #0
 80051ba:	d023      	beq.n	8005204 <__multiply+0xcc>
 80051bc:	4689      	mov	r9, r1
 80051be:	46ac      	mov	ip, r5
 80051c0:	f04f 0800 	mov.w	r8, #0
 80051c4:	f859 4b04 	ldr.w	r4, [r9], #4
 80051c8:	f8dc a000 	ldr.w	sl, [ip]
 80051cc:	b2a3      	uxth	r3, r4
 80051ce:	fa1f fa8a 	uxth.w	sl, sl
 80051d2:	fb0b a303 	mla	r3, fp, r3, sl
 80051d6:	ea4f 4a14 	mov.w	sl, r4, lsr #16
 80051da:	f8dc 4000 	ldr.w	r4, [ip]
 80051de:	4443      	add	r3, r8
 80051e0:	ea4f 4814 	mov.w	r8, r4, lsr #16
 80051e4:	fb0b 840a 	mla	r4, fp, sl, r8
 80051e8:	eb04 4413 	add.w	r4, r4, r3, lsr #16
 80051ec:	46e2      	mov	sl, ip
 80051ee:	b29b      	uxth	r3, r3
 80051f0:	ea43 4304 	orr.w	r3, r3, r4, lsl #16
 80051f4:	454f      	cmp	r7, r9
 80051f6:	ea4f 4814 	mov.w	r8, r4, lsr #16
 80051fa:	f84a 3b04 	str.w	r3, [sl], #4
 80051fe:	d82b      	bhi.n	8005258 <__multiply+0x120>
 8005200:	f8cc 8004 	str.w	r8, [ip, #4]
 8005204:	9b01      	ldr	r3, [sp, #4]
 8005206:	f8b3 a002 	ldrh.w	sl, [r3, #2]
 800520a:	3204      	adds	r2, #4
 800520c:	f1ba 0f00 	cmp.w	sl, #0
 8005210:	d020      	beq.n	8005254 <__multiply+0x11c>
 8005212:	682b      	ldr	r3, [r5, #0]
 8005214:	4689      	mov	r9, r1
 8005216:	46a8      	mov	r8, r5
 8005218:	f04f 0b00 	mov.w	fp, #0
 800521c:	f8b9 c000 	ldrh.w	ip, [r9]
 8005220:	f8b8 4002 	ldrh.w	r4, [r8, #2]
 8005224:	fb0a 440c 	mla	r4, sl, ip, r4
 8005228:	445c      	add	r4, fp
 800522a:	46c4      	mov	ip, r8
 800522c:	b29b      	uxth	r3, r3
 800522e:	ea43 4304 	orr.w	r3, r3, r4, lsl #16
 8005232:	f84c 3b04 	str.w	r3, [ip], #4
 8005236:	f859 3b04 	ldr.w	r3, [r9], #4
 800523a:	f8b8 b004 	ldrh.w	fp, [r8, #4]
 800523e:	0c1b      	lsrs	r3, r3, #16
 8005240:	fb0a b303 	mla	r3, sl, r3, fp
 8005244:	eb03 4314 	add.w	r3, r3, r4, lsr #16
 8005248:	454f      	cmp	r7, r9
 800524a:	ea4f 4b13 	mov.w	fp, r3, lsr #16
 800524e:	d805      	bhi.n	800525c <__multiply+0x124>
 8005250:	f8c8 3004 	str.w	r3, [r8, #4]
 8005254:	3504      	adds	r5, #4
 8005256:	e79b      	b.n	8005190 <__multiply+0x58>
 8005258:	46d4      	mov	ip, sl
 800525a:	e7b3      	b.n	80051c4 <__multiply+0x8c>
 800525c:	46e0      	mov	r8, ip
 800525e:	e7dd      	b.n	800521c <__multiply+0xe4>
 8005260:	3e01      	subs	r6, #1
 8005262:	e799      	b.n	8005198 <__multiply+0x60>

08005264 <__pow5mult>:
 8005264:	e92d 43f8 	stmdb	sp!, {r3, r4, r5, r6, r7, r8, r9, lr}
 8005268:	4615      	mov	r5, r2
 800526a:	f012 0203 	ands.w	r2, r2, #3
 800526e:	4606      	mov	r6, r0
 8005270:	460f      	mov	r7, r1
 8005272:	d007      	beq.n	8005284 <__pow5mult+0x20>
 8005274:	3a01      	subs	r2, #1
 8005276:	4c21      	ldr	r4, [pc, #132]	; (80052fc <__pow5mult+0x98>)
 8005278:	2300      	movs	r3, #0
 800527a:	f854 2022 	ldr.w	r2, [r4, r2, lsl #2]
 800527e:	f7ff fe8b 	bl	8004f98 <__multadd>
 8005282:	4607      	mov	r7, r0
 8005284:	10ad      	asrs	r5, r5, #2
 8005286:	d035      	beq.n	80052f4 <__pow5mult+0x90>
 8005288:	6a74      	ldr	r4, [r6, #36]	; 0x24
 800528a:	b93c      	cbnz	r4, 800529c <__pow5mult+0x38>
 800528c:	2010      	movs	r0, #16
 800528e:	f000 facf 	bl	8005830 <malloc>
 8005292:	6270      	str	r0, [r6, #36]	; 0x24
 8005294:	e9c0 4401 	strd	r4, r4, [r0, #4]
 8005298:	6004      	str	r4, [r0, #0]
 800529a:	60c4      	str	r4, [r0, #12]
 800529c:	f8d6 8024 	ldr.w	r8, [r6, #36]	; 0x24
 80052a0:	f8d8 4008 	ldr.w	r4, [r8, #8]
 80052a4:	b94c      	cbnz	r4, 80052ba <__pow5mult+0x56>
 80052a6:	f240 2171 	movw	r1, #625	; 0x271
 80052aa:	4630      	mov	r0, r6
 80052ac:	f7ff ff3b 	bl	8005126 <__i2b>
 80052b0:	2300      	movs	r3, #0
 80052b2:	f8c8 0008 	str.w	r0, [r8, #8]
 80052b6:	4604      	mov	r4, r0
 80052b8:	6003      	str	r3, [r0, #0]
 80052ba:	f04f 0800 	mov.w	r8, #0
 80052be:	07eb      	lsls	r3, r5, #31
 80052c0:	d50a      	bpl.n	80052d8 <__pow5mult+0x74>
 80052c2:	4639      	mov	r1, r7
 80052c4:	4622      	mov	r2, r4
 80052c6:	4630      	mov	r0, r6
 80052c8:	f7ff ff36 	bl	8005138 <__multiply>
 80052cc:	4639      	mov	r1, r7
 80052ce:	4681      	mov	r9, r0
 80052d0:	4630      	mov	r0, r6
 80052d2:	f7ff fe4a 	bl	8004f6a <_Bfree>
 80052d6:	464f      	mov	r7, r9
 80052d8:	106d      	asrs	r5, r5, #1
 80052da:	d00b      	beq.n	80052f4 <__pow5mult+0x90>
 80052dc:	6820      	ldr	r0, [r4, #0]
 80052de:	b938      	cbnz	r0, 80052f0 <__pow5mult+0x8c>
 80052e0:	4622      	mov	r2, r4
 80052e2:	4621      	mov	r1, r4
 80052e4:	4630      	mov	r0, r6
 80052e6:	f7ff ff27 	bl	8005138 <__multiply>
 80052ea:	6020      	str	r0, [r4, #0]
 80052ec:	f8c0 8000 	str.w	r8, [r0]
 80052f0:	4604      	mov	r4, r0
 80052f2:	e7e4      	b.n	80052be <__pow5mult+0x5a>
 80052f4:	4638      	mov	r0, r7
 80052f6:	e8bd 83f8 	ldmia.w	sp!, {r3, r4, r5, r6, r7, r8, r9, pc}
 80052fa:	bf00      	nop
 80052fc:	080059d0 	.word	0x080059d0

08005300 <__lshift>:
 8005300:	e92d 47f0 	stmdb	sp!, {r4, r5, r6, r7, r8, r9, sl, lr}
 8005304:	460c      	mov	r4, r1
 8005306:	ea4f 1a62 	mov.w	sl, r2, asr #5
 800530a:	6923      	ldr	r3, [r4, #16]
 800530c:	6849      	ldr	r1, [r1, #4]
 800530e:	eb0a 0903 	add.w	r9, sl, r3
 8005312:	68a3      	ldr	r3, [r4, #8]
 8005314:	4607      	mov	r7, r0
 8005316:	4616      	mov	r6, r2
 8005318:	f109 0501 	add.w	r5, r9, #1
 800531c:	42ab      	cmp	r3, r5
 800531e:	db32      	blt.n	8005386 <__lshift+0x86>
 8005320:	4638      	mov	r0, r7
 8005322:	f7ff fdee 	bl	8004f02 <_Balloc>
 8005326:	2300      	movs	r3, #0
 8005328:	4680      	mov	r8, r0
 800532a:	f100 0114 	add.w	r1, r0, #20
 800532e:	461a      	mov	r2, r3
 8005330:	4553      	cmp	r3, sl
 8005332:	db2b      	blt.n	800538c <__lshift+0x8c>
 8005334:	6920      	ldr	r0, [r4, #16]
 8005336:	ea2a 7aea 	bic.w	sl, sl, sl, asr #31
 800533a:	f104 0314 	add.w	r3, r4, #20
 800533e:	f016 021f 	ands.w	r2, r6, #31
 8005342:	eb01 018a 	add.w	r1, r1, sl, lsl #2
 8005346:	eb03 0c80 	add.w	ip, r3, r0, lsl #2
 800534a:	d025      	beq.n	8005398 <__lshift+0x98>
 800534c:	f1c2 0e20 	rsb	lr, r2, #32
 8005350:	2000      	movs	r0, #0
 8005352:	681e      	ldr	r6, [r3, #0]
 8005354:	468a      	mov	sl, r1
 8005356:	4096      	lsls	r6, r2
 8005358:	4330      	orrs	r0, r6
 800535a:	f84a 0b04 	str.w	r0, [sl], #4
 800535e:	f853 0b04 	ldr.w	r0, [r3], #4
 8005362:	459c      	cmp	ip, r3
 8005364:	fa20 f00e 	lsr.w	r0, r0, lr
 8005368:	d814      	bhi.n	8005394 <__lshift+0x94>
 800536a:	6048      	str	r0, [r1, #4]
 800536c:	b108      	cbz	r0, 8005372 <__lshift+0x72>
 800536e:	f109 0502 	add.w	r5, r9, #2
 8005372:	3d01      	subs	r5, #1
 8005374:	4638      	mov	r0, r7
 8005376:	f8c8 5010 	str.w	r5, [r8, #16]
 800537a:	4621      	mov	r1, r4
 800537c:	f7ff fdf5 	bl	8004f6a <_Bfree>
 8005380:	4640      	mov	r0, r8
 8005382:	e8bd 87f0 	ldmia.w	sp!, {r4, r5, r6, r7, r8, r9, sl, pc}
 8005386:	3101      	adds	r1, #1
 8005388:	005b      	lsls	r3, r3, #1
 800538a:	e7c7      	b.n	800531c <__lshift+0x1c>
 800538c:	f841 2023 	str.w	r2, [r1, r3, lsl #2]
 8005390:	3301      	adds	r3, #1
 8005392:	e7cd      	b.n	8005330 <__lshift+0x30>
 8005394:	4651      	mov	r1, sl
 8005396:	e7dc      	b.n	8005352 <__lshift+0x52>
 8005398:	3904      	subs	r1, #4
 800539a:	f853 2b04 	ldr.w	r2, [r3], #4
 800539e:	f841 2f04 	str.w	r2, [r1, #4]!
 80053a2:	459c      	cmp	ip, r3
 80053a4:	d8f9      	bhi.n	800539a <__lshift+0x9a>
 80053a6:	e7e4      	b.n	8005372 <__lshift+0x72>

080053a8 <__mcmp>:
 80053a8:	6903      	ldr	r3, [r0, #16]
 80053aa:	690a      	ldr	r2, [r1, #16]
 80053ac:	1a9b      	subs	r3, r3, r2
 80053ae:	b530      	push	{r4, r5, lr}
 80053b0:	d10c      	bne.n	80053cc <__mcmp+0x24>
 80053b2:	0092      	lsls	r2, r2, #2
 80053b4:	3014      	adds	r0, #20
 80053b6:	3114      	adds	r1, #20
 80053b8:	1884      	adds	r4, r0, r2
 80053ba:	4411      	add	r1, r2
 80053bc:	f854 5d04 	ldr.w	r5, [r4, #-4]!
 80053c0:	f851 2d04 	ldr.w	r2, [r1, #-4]!
 80053c4:	4295      	cmp	r5, r2
 80053c6:	d003      	beq.n	80053d0 <__mcmp+0x28>
 80053c8:	d305      	bcc.n	80053d6 <__mcmp+0x2e>
 80053ca:	2301      	movs	r3, #1
 80053cc:	4618      	mov	r0, r3
 80053ce:	bd30      	pop	{r4, r5, pc}
 80053d0:	42a0      	cmp	r0, r4
 80053d2:	d3f3      	bcc.n	80053bc <__mcmp+0x14>
 80053d4:	e7fa      	b.n	80053cc <__mcmp+0x24>
 80053d6:	f04f 33ff 	mov.w	r3, #4294967295
 80053da:	e7f7      	b.n	80053cc <__mcmp+0x24>

080053dc <__mdiff>:
 80053dc:	e92d 47f0 	stmdb	sp!, {r4, r5, r6, r7, r8, r9, sl, lr}
 80053e0:	460d      	mov	r5, r1
 80053e2:	4607      	mov	r7, r0
 80053e4:	4611      	mov	r1, r2
 80053e6:	4628      	mov	r0, r5
 80053e8:	4614      	mov	r4, r2
 80053ea:	f7ff ffdd 	bl	80053a8 <__mcmp>
 80053ee:	1e06      	subs	r6, r0, #0
 80053f0:	d108      	bne.n	8005404 <__mdiff+0x28>
 80053f2:	4631      	mov	r1, r6
 80053f4:	4638      	mov	r0, r7
 80053f6:	f7ff fd84 	bl	8004f02 <_Balloc>
 80053fa:	2301      	movs	r3, #1
 80053fc:	e9c0 3604 	strd	r3, r6, [r0, #16]
 8005400:	e8bd 87f0 	ldmia.w	sp!, {r4, r5, r6, r7, r8, r9, sl, pc}
 8005404:	bfa4      	itt	ge
 8005406:	4623      	movge	r3, r4
 8005408:	462c      	movge	r4, r5
 800540a:	4638      	mov	r0, r7
 800540c:	6861      	ldr	r1, [r4, #4]
 800540e:	bfa6      	itte	ge
 8005410:	461d      	movge	r5, r3
 8005412:	2600      	movge	r6, #0
 8005414:	2601      	movlt	r6, #1
 8005416:	f7ff fd74 	bl	8004f02 <_Balloc>
 800541a:	692b      	ldr	r3, [r5, #16]
 800541c:	60c6      	str	r6, [r0, #12]
 800541e:	6926      	ldr	r6, [r4, #16]
 8005420:	f105 0914 	add.w	r9, r5, #20
 8005424:	f104 0214 	add.w	r2, r4, #20
 8005428:	eb02 0786 	add.w	r7, r2, r6, lsl #2
 800542c:	eb09 0883 	add.w	r8, r9, r3, lsl #2
 8005430:	f100 0514 	add.w	r5, r0, #20
 8005434:	f04f 0e00 	mov.w	lr, #0
 8005438:	f852 ab04 	ldr.w	sl, [r2], #4
 800543c:	f859 4b04 	ldr.w	r4, [r9], #4
 8005440:	fa1e f18a 	uxtah	r1, lr, sl
 8005444:	b2a3      	uxth	r3, r4
 8005446:	1ac9      	subs	r1, r1, r3
 8005448:	0c23      	lsrs	r3, r4, #16
 800544a:	ebc3 431a 	rsb	r3, r3, sl, lsr #16
 800544e:	eb03 4321 	add.w	r3, r3, r1, asr #16
 8005452:	b289      	uxth	r1, r1
 8005454:	ea4f 4e23 	mov.w	lr, r3, asr #16
 8005458:	45c8      	cmp	r8, r9
 800545a:	ea41 4303 	orr.w	r3, r1, r3, lsl #16
 800545e:	4694      	mov	ip, r2
 8005460:	f845 3b04 	str.w	r3, [r5], #4
 8005464:	d8e8      	bhi.n	8005438 <__mdiff+0x5c>
 8005466:	45bc      	cmp	ip, r7
 8005468:	d304      	bcc.n	8005474 <__mdiff+0x98>
 800546a:	f855 3d04 	ldr.w	r3, [r5, #-4]!
 800546e:	b183      	cbz	r3, 8005492 <__mdiff+0xb6>
 8005470:	6106      	str	r6, [r0, #16]
 8005472:	e7c5      	b.n	8005400 <__mdiff+0x24>
 8005474:	f85c 1b04 	ldr.w	r1, [ip], #4
 8005478:	fa1e f381 	uxtah	r3, lr, r1
 800547c:	141a      	asrs	r2, r3, #16
 800547e:	eb02 4211 	add.w	r2, r2, r1, lsr #16
 8005482:	b29b      	uxth	r3, r3
 8005484:	ea43 4302 	orr.w	r3, r3, r2, lsl #16
 8005488:	ea4f 4e22 	mov.w	lr, r2, asr #16
 800548c:	f845 3b04 	str.w	r3, [r5], #4
 8005490:	e7e9      	b.n	8005466 <__mdiff+0x8a>
 8005492:	3e01      	subs	r6, #1
 8005494:	e7e9      	b.n	800546a <__mdiff+0x8e>
	...

08005498 <__ulp>:
 8005498:	4b12      	ldr	r3, [pc, #72]	; (80054e4 <__ulp+0x4c>)
 800549a:	ee10 2a90 	vmov	r2, s1
 800549e:	401a      	ands	r2, r3
 80054a0:	f1a2 7350 	sub.w	r3, r2, #54525952	; 0x3400000
 80054a4:	2b00      	cmp	r3, #0
 80054a6:	dd04      	ble.n	80054b2 <__ulp+0x1a>
 80054a8:	2000      	movs	r0, #0
 80054aa:	4619      	mov	r1, r3
 80054ac:	ec41 0b10 	vmov	d0, r0, r1
 80054b0:	4770      	bx	lr
 80054b2:	425b      	negs	r3, r3
 80054b4:	151b      	asrs	r3, r3, #20
 80054b6:	2b13      	cmp	r3, #19
 80054b8:	f04f 0000 	mov.w	r0, #0
 80054bc:	f04f 0100 	mov.w	r1, #0
 80054c0:	dc04      	bgt.n	80054cc <__ulp+0x34>
 80054c2:	f44f 2200 	mov.w	r2, #524288	; 0x80000
 80054c6:	fa42 f103 	asr.w	r1, r2, r3
 80054ca:	e7ef      	b.n	80054ac <__ulp+0x14>
 80054cc:	3b14      	subs	r3, #20
 80054ce:	2b1e      	cmp	r3, #30
 80054d0:	f04f 0201 	mov.w	r2, #1
 80054d4:	bfda      	itte	le
 80054d6:	f1c3 031f 	rsble	r3, r3, #31
 80054da:	fa02 f303 	lslle.w	r3, r2, r3
 80054de:	4613      	movgt	r3, r2
 80054e0:	4618      	mov	r0, r3
 80054e2:	e7e3      	b.n	80054ac <__ulp+0x14>
 80054e4:	7ff00000 	.word	0x7ff00000

080054e8 <__b2d>:
 80054e8:	b5f8      	push	{r3, r4, r5, r6, r7, lr}
 80054ea:	6905      	ldr	r5, [r0, #16]
 80054ec:	f100 0714 	add.w	r7, r0, #20
 80054f0:	eb07 0585 	add.w	r5, r7, r5, lsl #2
 80054f4:	1f2e      	subs	r6, r5, #4
 80054f6:	f855 4c04 	ldr.w	r4, [r5, #-4]
 80054fa:	4620      	mov	r0, r4
 80054fc:	f7ff fdc5 	bl	800508a <__hi0bits>
 8005500:	f1c0 0320 	rsb	r3, r0, #32
 8005504:	280a      	cmp	r0, #10
 8005506:	600b      	str	r3, [r1, #0]
 8005508:	f8df c074 	ldr.w	ip, [pc, #116]	; 8005580 <__b2d+0x98>
 800550c:	dc14      	bgt.n	8005538 <__b2d+0x50>
 800550e:	f1c0 0e0b 	rsb	lr, r0, #11
 8005512:	fa24 f10e 	lsr.w	r1, r4, lr
 8005516:	42b7      	cmp	r7, r6
 8005518:	ea41 030c 	orr.w	r3, r1, ip
 800551c:	bf34      	ite	cc
 800551e:	f855 1c08 	ldrcc.w	r1, [r5, #-8]
 8005522:	2100      	movcs	r1, #0
 8005524:	3015      	adds	r0, #21
 8005526:	fa04 f000 	lsl.w	r0, r4, r0
 800552a:	fa21 f10e 	lsr.w	r1, r1, lr
 800552e:	ea40 0201 	orr.w	r2, r0, r1
 8005532:	ec43 2b10 	vmov	d0, r2, r3
 8005536:	bdf8      	pop	{r3, r4, r5, r6, r7, pc}
 8005538:	42b7      	cmp	r7, r6
 800553a:	bf3a      	itte	cc
 800553c:	f1a5 0608 	subcc.w	r6, r5, #8
 8005540:	f855 1c08 	ldrcc.w	r1, [r5, #-8]
 8005544:	2100      	movcs	r1, #0
 8005546:	380b      	subs	r0, #11
 8005548:	d015      	beq.n	8005576 <__b2d+0x8e>
 800554a:	4084      	lsls	r4, r0
 800554c:	f1c0 0520 	rsb	r5, r0, #32
 8005550:	f044 547f 	orr.w	r4, r4, #1069547520	; 0x3fc00000
 8005554:	f444 1440 	orr.w	r4, r4, #3145728	; 0x300000
 8005558:	42be      	cmp	r6, r7
 800555a:	fa21 fc05 	lsr.w	ip, r1, r5
 800555e:	ea44 030c 	orr.w	r3, r4, ip
 8005562:	bf8c      	ite	hi
 8005564:	f856 4c04 	ldrhi.w	r4, [r6, #-4]
 8005568:	2400      	movls	r4, #0
 800556a:	fa01 f000 	lsl.w	r0, r1, r0
 800556e:	40ec      	lsrs	r4, r5
 8005570:	ea40 0204 	orr.w	r2, r0, r4
 8005574:	e7dd      	b.n	8005532 <__b2d+0x4a>
 8005576:	ea44 030c 	orr.w	r3, r4, ip
 800557a:	460a      	mov	r2, r1
 800557c:	e7d9      	b.n	8005532 <__b2d+0x4a>
 800557e:	bf00      	nop
 8005580:	3ff00000 	.word	0x3ff00000

08005584 <__d2b>:
 8005584:	e92d 43f7 	stmdb	sp!, {r0, r1, r2, r4, r5, r6, r7, r8, r9, lr}
 8005588:	460e      	mov	r6, r1
 800558a:	2101      	movs	r1, #1
 800558c:	ec59 8b10 	vmov	r8, r9, d0
 8005590:	4615      	mov	r5, r2
 8005592:	f7ff fcb6 	bl	8004f02 <_Balloc>
 8005596:	f3c9 540a 	ubfx	r4, r9, #20, #11
 800559a:	4607      	mov	r7, r0
 800559c:	f3c9 0313 	ubfx	r3, r9, #0, #20
 80055a0:	bb34      	cbnz	r4, 80055f0 <__d2b+0x6c>
 80055a2:	9301      	str	r3, [sp, #4]
 80055a4:	f1b8 0300 	subs.w	r3, r8, #0
 80055a8:	d027      	beq.n	80055fa <__d2b+0x76>
 80055aa:	a802      	add	r0, sp, #8
 80055ac:	f840 3d08 	str.w	r3, [r0, #-8]!
 80055b0:	f7ff fd8a 	bl	80050c8 <__lo0bits>
 80055b4:	9900      	ldr	r1, [sp, #0]
 80055b6:	b1f0      	cbz	r0, 80055f6 <__d2b+0x72>
 80055b8:	9a01      	ldr	r2, [sp, #4]
 80055ba:	f1c0 0320 	rsb	r3, r0, #32
 80055be:	fa02 f303 	lsl.w	r3, r2, r3
 80055c2:	430b      	orrs	r3, r1
 80055c4:	40c2      	lsrs	r2, r0
 80055c6:	617b      	str	r3, [r7, #20]
 80055c8:	9201      	str	r2, [sp, #4]
 80055ca:	9b01      	ldr	r3, [sp, #4]
 80055cc:	61bb      	str	r3, [r7, #24]
 80055ce:	2b00      	cmp	r3, #0
 80055d0:	bf14      	ite	ne
 80055d2:	2102      	movne	r1, #2
 80055d4:	2101      	moveq	r1, #1
 80055d6:	6139      	str	r1, [r7, #16]
 80055d8:	b1c4      	cbz	r4, 800560c <__d2b+0x88>
 80055da:	f2a4 4433 	subw	r4, r4, #1075	; 0x433
 80055de:	4404      	add	r4, r0
 80055e0:	6034      	str	r4, [r6, #0]
 80055e2:	f1c0 0035 	rsb	r0, r0, #53	; 0x35
 80055e6:	6028      	str	r0, [r5, #0]
 80055e8:	4638      	mov	r0, r7
 80055ea:	b003      	add	sp, #12
 80055ec:	e8bd 83f0 	ldmia.w	sp!, {r4, r5, r6, r7, r8, r9, pc}
 80055f0:	f443 1380 	orr.w	r3, r3, #1048576	; 0x100000
 80055f4:	e7d5      	b.n	80055a2 <__d2b+0x1e>
 80055f6:	6179      	str	r1, [r7, #20]
 80055f8:	e7e7      	b.n	80055ca <__d2b+0x46>
 80055fa:	a801      	add	r0, sp, #4
 80055fc:	f7ff fd64 	bl	80050c8 <__lo0bits>
 8005600:	9b01      	ldr	r3, [sp, #4]
 8005602:	617b      	str	r3, [r7, #20]
 8005604:	2101      	movs	r1, #1
 8005606:	6139      	str	r1, [r7, #16]
 8005608:	3020      	adds	r0, #32
 800560a:	e7e5      	b.n	80055d8 <__d2b+0x54>
 800560c:	eb07 0381 	add.w	r3, r7, r1, lsl #2
 8005610:	f2a0 4032 	subw	r0, r0, #1074	; 0x432
 8005614:	6030      	str	r0, [r6, #0]
 8005616:	6918      	ldr	r0, [r3, #16]
 8005618:	f7ff fd37 	bl	800508a <__hi0bits>
 800561c:	ebc0 1041 	rsb	r0, r0, r1, lsl #5
 8005620:	e7e1      	b.n	80055e6 <__d2b+0x62>

08005622 <__ratio>:
 8005622:	e92d 4ff7 	stmdb	sp!, {r0, r1, r2, r4, r5, r6, r7, r8, r9, sl, fp, lr}
 8005626:	4688      	mov	r8, r1
 8005628:	4669      	mov	r1, sp
 800562a:	4681      	mov	r9, r0
 800562c:	f7ff ff5c 	bl	80054e8 <__b2d>
 8005630:	a901      	add	r1, sp, #4
 8005632:	4640      	mov	r0, r8
 8005634:	ec57 6b10 	vmov	r6, r7, d0
 8005638:	f7ff ff56 	bl	80054e8 <__b2d>
 800563c:	f8d9 3010 	ldr.w	r3, [r9, #16]
 8005640:	f8d8 2010 	ldr.w	r2, [r8, #16]
 8005644:	eba3 0c02 	sub.w	ip, r3, r2
 8005648:	e9dd 3200 	ldrd	r3, r2, [sp]
 800564c:	1a9b      	subs	r3, r3, r2
 800564e:	eb03 134c 	add.w	r3, r3, ip, lsl #5
 8005652:	ec5b ab10 	vmov	sl, fp, d0
 8005656:	2b00      	cmp	r3, #0
 8005658:	bfce      	itee	gt
 800565a:	463a      	movgt	r2, r7
 800565c:	ebc3 3303 	rsble	r3, r3, r3, lsl #12
 8005660:	465a      	movle	r2, fp
 8005662:	4659      	mov	r1, fp
 8005664:	463d      	mov	r5, r7
 8005666:	bfd4      	ite	le
 8005668:	eb02 5103 	addle.w	r1, r2, r3, lsl #20
 800566c:	eb02 5503 	addgt.w	r5, r2, r3, lsl #20
 8005670:	4630      	mov	r0, r6
 8005672:	ee10 2a10 	vmov	r2, s0
 8005676:	460b      	mov	r3, r1
 8005678:	4629      	mov	r1, r5
 800567a:	f7fb f893 	bl	80007a4 <__aeabi_ddiv>
 800567e:	ec41 0b10 	vmov	d0, r0, r1
 8005682:	b003      	add	sp, #12
 8005684:	e8bd 8ff0 	ldmia.w	sp!, {r4, r5, r6, r7, r8, r9, sl, fp, pc}

08005688 <__copybits>:
 8005688:	3901      	subs	r1, #1
 800568a:	b510      	push	{r4, lr}
 800568c:	1149      	asrs	r1, r1, #5
 800568e:	6914      	ldr	r4, [r2, #16]
 8005690:	3101      	adds	r1, #1
 8005692:	f102 0314 	add.w	r3, r2, #20
 8005696:	eb00 0181 	add.w	r1, r0, r1, lsl #2
 800569a:	eb03 0484 	add.w	r4, r3, r4, lsl #2
 800569e:	42a3      	cmp	r3, r4
 80056a0:	4602      	mov	r2, r0
 80056a2:	d303      	bcc.n	80056ac <__copybits+0x24>
 80056a4:	2300      	movs	r3, #0
 80056a6:	428a      	cmp	r2, r1
 80056a8:	d305      	bcc.n	80056b6 <__copybits+0x2e>
 80056aa:	bd10      	pop	{r4, pc}
 80056ac:	f853 2b04 	ldr.w	r2, [r3], #4
 80056b0:	f840 2b04 	str.w	r2, [r0], #4
 80056b4:	e7f3      	b.n	800569e <__copybits+0x16>
 80056b6:	f842 3b04 	str.w	r3, [r2], #4
 80056ba:	e7f4      	b.n	80056a6 <__copybits+0x1e>

080056bc <__any_on>:
 80056bc:	f100 0214 	add.w	r2, r0, #20
 80056c0:	6900      	ldr	r0, [r0, #16]
 80056c2:	114b      	asrs	r3, r1, #5
 80056c4:	4298      	cmp	r0, r3
 80056c6:	b510      	push	{r4, lr}
 80056c8:	db11      	blt.n	80056ee <__any_on+0x32>
 80056ca:	dd0a      	ble.n	80056e2 <__any_on+0x26>
 80056cc:	f011 011f 	ands.w	r1, r1, #31
 80056d0:	d007      	beq.n	80056e2 <__any_on+0x26>
 80056d2:	f852 4023 	ldr.w	r4, [r2, r3, lsl #2]
 80056d6:	fa24 f001 	lsr.w	r0, r4, r1
 80056da:	fa00 f101 	lsl.w	r1, r0, r1
 80056de:	428c      	cmp	r4, r1
 80056e0:	d10b      	bne.n	80056fa <__any_on+0x3e>
 80056e2:	eb02 0383 	add.w	r3, r2, r3, lsl #2
 80056e6:	4293      	cmp	r3, r2
 80056e8:	d803      	bhi.n	80056f2 <__any_on+0x36>
 80056ea:	2000      	movs	r0, #0
 80056ec:	bd10      	pop	{r4, pc}
 80056ee:	4603      	mov	r3, r0
 80056f0:	e7f7      	b.n	80056e2 <__any_on+0x26>
 80056f2:	f853 1d04 	ldr.w	r1, [r3, #-4]!
 80056f6:	2900      	cmp	r1, #0
 80056f8:	d0f5      	beq.n	80056e6 <__any_on+0x2a>
 80056fa:	2001      	movs	r0, #1
 80056fc:	e7f6      	b.n	80056ec <__any_on+0x30>

080056fe <_calloc_r>:
 80056fe:	b538      	push	{r3, r4, r5, lr}
 8005700:	fb02 f401 	mul.w	r4, r2, r1
 8005704:	4621      	mov	r1, r4
 8005706:	f000 f809 	bl	800571c <_malloc_r>
 800570a:	4605      	mov	r5, r0
 800570c:	b118      	cbz	r0, 8005716 <_calloc_r+0x18>
 800570e:	4622      	mov	r2, r4
 8005710:	2100      	movs	r1, #0
 8005712:	f7fe fa85 	bl	8003c20 <memset>
 8005716:	4628      	mov	r0, r5
 8005718:	bd38      	pop	{r3, r4, r5, pc}
	...

0800571c <_malloc_r>:
 800571c:	b570      	push	{r4, r5, r6, lr}
 800571e:	1ccd      	adds	r5, r1, #3
 8005720:	f025 0503 	bic.w	r5, r5, #3
 8005724:	3508      	adds	r5, #8
 8005726:	2d0c      	cmp	r5, #12
 8005728:	bf38      	it	cc
 800572a:	250c      	movcc	r5, #12
 800572c:	2d00      	cmp	r5, #0
 800572e:	4606      	mov	r6, r0
 8005730:	db01      	blt.n	8005736 <_malloc_r+0x1a>
 8005732:	42a9      	cmp	r1, r5
 8005734:	d903      	bls.n	800573e <_malloc_r+0x22>
 8005736:	230c      	movs	r3, #12
 8005738:	6033      	str	r3, [r6, #0]
 800573a:	2000      	movs	r0, #0
 800573c:	bd70      	pop	{r4, r5, r6, pc}
 800573e:	f000 f87f 	bl	8005840 <__malloc_lock>
 8005742:	4a21      	ldr	r2, [pc, #132]	; (80057c8 <_malloc_r+0xac>)
 8005744:	6814      	ldr	r4, [r2, #0]
 8005746:	4621      	mov	r1, r4
 8005748:	b991      	cbnz	r1, 8005770 <_malloc_r+0x54>
 800574a:	4c20      	ldr	r4, [pc, #128]	; (80057cc <_malloc_r+0xb0>)
 800574c:	6823      	ldr	r3, [r4, #0]
 800574e:	b91b      	cbnz	r3, 8005758 <_malloc_r+0x3c>
 8005750:	4630      	mov	r0, r6
 8005752:	f000 f83d 	bl	80057d0 <_sbrk_r>
 8005756:	6020      	str	r0, [r4, #0]
 8005758:	4629      	mov	r1, r5
 800575a:	4630      	mov	r0, r6
 800575c:	f000 f838 	bl	80057d0 <_sbrk_r>
 8005760:	1c43      	adds	r3, r0, #1
 8005762:	d124      	bne.n	80057ae <_malloc_r+0x92>
 8005764:	230c      	movs	r3, #12
 8005766:	6033      	str	r3, [r6, #0]
 8005768:	4630      	mov	r0, r6
 800576a:	f000 f86a 	bl	8005842 <__malloc_unlock>
 800576e:	e7e4      	b.n	800573a <_malloc_r+0x1e>
 8005770:	680b      	ldr	r3, [r1, #0]
 8005772:	1b5b      	subs	r3, r3, r5
 8005774:	d418      	bmi.n	80057a8 <_malloc_r+0x8c>
 8005776:	2b0b      	cmp	r3, #11
 8005778:	d90f      	bls.n	800579a <_malloc_r+0x7e>
 800577a:	600b      	str	r3, [r1, #0]
 800577c:	50cd      	str	r5, [r1, r3]
 800577e:	18cc      	adds	r4, r1, r3
 8005780:	4630      	mov	r0, r6
 8005782:	f000 f85e 	bl	8005842 <__malloc_unlock>
 8005786:	f104 000b 	add.w	r0, r4, #11
 800578a:	1d23      	adds	r3, r4, #4
 800578c:	f020 0007 	bic.w	r0, r0, #7
 8005790:	1ac3      	subs	r3, r0, r3
 8005792:	d0d3      	beq.n	800573c <_malloc_r+0x20>
 8005794:	425a      	negs	r2, r3
 8005796:	50e2      	str	r2, [r4, r3]
 8005798:	e7d0      	b.n	800573c <_malloc_r+0x20>
 800579a:	428c      	cmp	r4, r1
 800579c:	684b      	ldr	r3, [r1, #4]
 800579e:	bf16      	itet	ne
 80057a0:	6063      	strne	r3, [r4, #4]
 80057a2:	6013      	streq	r3, [r2, #0]
 80057a4:	460c      	movne	r4, r1
 80057a6:	e7eb      	b.n	8005780 <_malloc_r+0x64>
 80057a8:	460c      	mov	r4, r1
 80057aa:	6849      	ldr	r1, [r1, #4]
 80057ac:	e7cc      	b.n	8005748 <_malloc_r+0x2c>
 80057ae:	1cc4      	adds	r4, r0, #3
 80057b0:	f024 0403 	bic.w	r4, r4, #3
 80057b4:	42a0      	cmp	r0, r4
 80057b6:	d005      	beq.n	80057c4 <_malloc_r+0xa8>
 80057b8:	1a21      	subs	r1, r4, r0
 80057ba:	4630      	mov	r0, r6
 80057bc:	f000 f808 	bl	80057d0 <_sbrk_r>
 80057c0:	3001      	adds	r0, #1
 80057c2:	d0cf      	beq.n	8005764 <_malloc_r+0x48>
 80057c4:	6025      	str	r5, [r4, #0]
 80057c6:	e7db      	b.n	8005780 <_malloc_r+0x64>
 80057c8:	20000240 	.word	0x20000240
 80057cc:	20000244 	.word	0x20000244

080057d0 <_sbrk_r>:
 80057d0:	b538      	push	{r3, r4, r5, lr}
 80057d2:	4c06      	ldr	r4, [pc, #24]	; (80057ec <_sbrk_r+0x1c>)
 80057d4:	2300      	movs	r3, #0
 80057d6:	4605      	mov	r5, r0
 80057d8:	4608      	mov	r0, r1
 80057da:	6023      	str	r3, [r4, #0]
 80057dc:	f7fb fe72 	bl	80014c4 <_sbrk>
 80057e0:	1c43      	adds	r3, r0, #1
 80057e2:	d102      	bne.n	80057ea <_sbrk_r+0x1a>
 80057e4:	6823      	ldr	r3, [r4, #0]
 80057e6:	b103      	cbz	r3, 80057ea <_sbrk_r+0x1a>
 80057e8:	602b      	str	r3, [r5, #0]
 80057ea:	bd38      	pop	{r3, r4, r5, pc}
 80057ec:	2000ee24 	.word	0x2000ee24

080057f0 <strncmp>:
 80057f0:	b510      	push	{r4, lr}
 80057f2:	b16a      	cbz	r2, 8005810 <strncmp+0x20>
 80057f4:	3901      	subs	r1, #1
 80057f6:	1884      	adds	r4, r0, r2
 80057f8:	f810 3b01 	ldrb.w	r3, [r0], #1
 80057fc:	f811 2f01 	ldrb.w	r2, [r1, #1]!
 8005800:	4293      	cmp	r3, r2
 8005802:	d103      	bne.n	800580c <strncmp+0x1c>
 8005804:	42a0      	cmp	r0, r4
 8005806:	d001      	beq.n	800580c <strncmp+0x1c>
 8005808:	2b00      	cmp	r3, #0
 800580a:	d1f5      	bne.n	80057f8 <strncmp+0x8>
 800580c:	1a98      	subs	r0, r3, r2
 800580e:	bd10      	pop	{r4, pc}
 8005810:	4610      	mov	r0, r2
 8005812:	e7fc      	b.n	800580e <strncmp+0x1e>

08005814 <__ascii_wctomb>:
 8005814:	b149      	cbz	r1, 800582a <__ascii_wctomb+0x16>
 8005816:	2aff      	cmp	r2, #255	; 0xff
 8005818:	bf85      	ittet	hi
 800581a:	238a      	movhi	r3, #138	; 0x8a
 800581c:	6003      	strhi	r3, [r0, #0]
 800581e:	700a      	strbls	r2, [r1, #0]
 8005820:	f04f 30ff 	movhi.w	r0, #4294967295
 8005824:	bf98      	it	ls
 8005826:	2001      	movls	r0, #1
 8005828:	4770      	bx	lr
 800582a:	4608      	mov	r0, r1
 800582c:	4770      	bx	lr
	...

08005830 <malloc>:
 8005830:	4b02      	ldr	r3, [pc, #8]	; (800583c <malloc+0xc>)
 8005832:	4601      	mov	r1, r0
 8005834:	6818      	ldr	r0, [r3, #0]
 8005836:	f7ff bf71 	b.w	800571c <_malloc_r>
 800583a:	bf00      	nop
 800583c:	20000010 	.word	0x20000010

08005840 <__malloc_lock>:
 8005840:	4770      	bx	lr

08005842 <__malloc_unlock>:
 8005842:	4770      	bx	lr

08005844 <_init>:
 8005844:	b5f8      	push	{r3, r4, r5, r6, r7, lr}
 8005846:	bf00      	nop
 8005848:	bcf8      	pop	{r3, r4, r5, r6, r7}
 800584a:	bc08      	pop	{r3}
 800584c:	469e      	mov	lr, r3
 800584e:	4770      	bx	lr

08005850 <_fini>:
 8005850:	b5f8      	push	{r3, r4, r5, r6, r7, lr}
 8005852:	bf00      	nop
 8005854:	bcf8      	pop	{r3, r4, r5, r6, r7}
 8005856:	bc08      	pop	{r3}
 8005858:	469e      	mov	lr, r3
 800585a:	4770      	bx	lr
